(idocclass
Classifier
p0
(dp1
S'classes'
p2
(lp3
S'tech'
p4
aS'nontech'
p5
asS'cc'
p6
(dp7
g4
I4948
sg5
I2712
ssS'getfeatures'
p8
cdocclass
getwords
p9
sS'fc'
p10
(dp11
Vberblick
p12
(dp13
g4
I1
sg5
I1
ssVwochen
p14
(dp15
g4
I2
sg5
I0
ssVhlerschaft
p16
(dp17
g4
I0
sg5
I1
ssVgiorgio
p18
(dp19
g4
I0
sg5
I1
ssVverweigerer
p20
(dp21
g4
I0
sg5
I1
ssVumts
p22
(dp23
g4
I1
sg5
I0
ssVprotest
p24
(dp25
g4
I1
sg5
I0
ssVphilipp
p26
(dp27
g4
I0
sg5
I1
ssVdienste
p28
(dp29
g4
I2
sg5
I0
ssVdreidimensionale
p30
(dp31
g4
I1
sg5
I0
ssVprogrammvielfalt
p32
(dp33
g4
I1
sg5
I0
ssVvorrundenspiel
p34
(dp35
g4
I4
sg5
I0
ssVdazu
p36
(dp37
g4
I1
sg5
I0
ssVauf
p38
(dp39
g4
I54
sg5
I16
ssVeingereicht
p40
(dp41
g4
I1
sg5
I0
ssVswan
p42
(dp43
g4
I0
sg5
I1
ssVauszeichnung
p44
(dp45
g4
I1
sg5
I0
ssVeingabeger
p46
(dp47
g4
I1
sg5
I0
ssVaus
p48
(dp49
g4
I23
sg5
I15
ssVbike
p50
(dp51
g4
I1
sg5
I0
ssVhermann
p52
(dp53
g4
I0
sg5
I1
ssVren
p54
(dp55
g4
I4
sg5
I3
ssVvergessen
p56
(dp57
g4
I1
sg5
I0
ssVgetesteten
p58
(dp59
g4
I1
sg5
I0
ssVumstieg
p60
(dp61
g4
I1
sg5
I0
ssVneue
p62
(dp63
g4
I19
sg5
I4
ssVbefehligt
p64
(dp65
g4
I0
sg5
I1
ssVverschiedener
p66
(dp67
g4
I1
sg5
I0
ssVgerade
p68
(dp69
g4
I0
sg5
I1
ssVverschiedenen
p70
(dp71
g4
I1
sg5
I0
ssVletzten
p72
(dp73
g4
I5
sg5
I0
ssVtrainerkarriere
p74
(dp75
g4
I0
sg5
I1
ssVhkritik
p76
(dp77
g4
I0
sg5
I1
ssVabnicken
p78
(dp79
g4
I1
sg5
I0
ssVlumia
p80
(dp81
g4
I1
sg5
I0
ssVforderte
p82
(dp83
g4
I0
sg5
I2
ssVmessagingdienst
p84
(dp85
g4
I1
sg5
I0
ssVsportprogramm
p86
(dp87
g4
I1
sg5
I0
ssVentwicklern
p88
(dp89
g4
I1
sg5
I0
ssVgesetz
p90
(dp91
g4
I0
sg5
I1
ssVregierungschefs
p92
(dp93
g4
I0
sg5
I1
ssVhaben
p94
(dp95
g4
I18
sg5
I10
ssVphase
p96
(dp97
g4
I0
sg5
I1
ssVtlichkeiten
p98
(dp99
g4
I0
sg5
I1
ssVgeworden
p100
(dp101
g4
I1
sg5
I0
ssVzdf
p102
(dp103
g4
I3
sg5
I0
ssVblick
p104
(dp105
g4
I2
sg5
I0
ssVanschlie
p106
(dp107
g4
I1
sg5
I0
ssVestland
p108
(dp109
g4
I0
sg5
I1
ssVgucken
p110
(dp111
g4
I1
sg5
I0
ssVrttemberg
p112
(dp113
g4
I0
sg5
I2
ssVzuletzt
p114
(dp115
g4
I0
sg5
I1
ssVenth
p116
(dp117
g4
I3
sg5
I0
ssVhollande
p118
(dp119
g4
I0
sg5
I1
ssVverschwunden
p120
(dp121
g4
I1
sg5
I0
ssVwarnt
p122
(dp123
g4
I0
sg5
I3
ssVpartei
p124
(dp125
g4
I0
sg5
I3
ssVchef
p126
(dp127
g4
I2
sg5
I2
ssVlaserlicht
p128
(dp129
g4
I1
sg5
I0
ssVtrifft
p130
(dp131
g4
I4
sg5
I2
ssVentt
p132
(dp133
g4
I1
sg5
I0
ssVvaliant
p134
(dp135
g4
I1
sg5
I0
ssVstrenge
p136
(dp137
g4
I0
sg5
I1
ssVchen
p138
(dp139
g4
I0
sg5
I1
ssVpsu
p140
(dp141
g4
I1
sg5
I0
ssVankurbeln
p142
(dp143
g4
I0
sg5
I1
ssVkolonien
p144
(dp145
g4
I0
sg5
I1
ssVnen
p146
(dp147
g4
I1
sg5
I4
ssVneo
p148
(dp149
g4
I1
sg5
I0
ssVentrauchungsanlage
p150
(dp151
g4
I0
sg5
I1
ssVmicrosofts
p152
(dp153
g4
I3
sg5
I0
ssVabsturzgef
p154
(dp155
g4
I1
sg5
I0
ssVsselte
p156
(dp157
g4
I1
sg5
I0
ssVasia
p158
(dp159
g4
I1
sg5
I0
ssVals
p160
(dp161
g4
I15
sg5
I13
ssVwandspeicher
p162
(dp163
g4
I2
sg5
I0
ssVneu
p164
(dp165
g4
I2
sg5
I0
ssVkampfkunst
p166
(dp167
g4
I1
sg5
I0
ssVipod
p168
(dp169
g4
I2
sg5
I0
ssVdort
p170
(dp171
g4
I0
sg5
I1
ssVsinkt
p172
(dp173
g4
I1
sg5
I0
ssVbezahlen
p174
(dp175
g4
I0
sg5
I1
ssVprogrammiersprache
p176
(dp177
g4
I1
sg5
I0
ssVhere
p178
(dp179
g4
I2
sg5
I0
ssVdrei
p180
(dp181
g4
I1
sg5
I4
ssVnicht
p182
(dp183
g4
I20
sg5
I21
ssVvorher
p184
(dp185
g4
I1
sg5
I0
ssVtzern
p186
(dp187
g4
I0
sg5
I1
ssVmenschen
p188
(dp189
g4
I0
sg5
I1
ssVchino
p190
(dp191
g4
I1
sg5
I0
ssVbremsen
p192
(dp193
g4
I1
sg5
I0
ssVsteckt
p194
(dp195
g4
I0
sg5
I1
ssVparlaments
p196
(dp197
g4
I0
sg5
I1
ssVsuperheldenkarriere
p198
(dp199
g4
I1
sg5
I0
ssVrichter
p200
(dp201
g4
I0
sg5
I3
ssVanstatt
p202
(dp203
g4
I1
sg5
I0
ssVitunes
p204
(dp205
g4
I2
sg5
I0
ssVserienbildrate
p206
(dp207
g4
I1
sg5
I0
ssVkarim
p208
(dp209
g4
I0
sg5
I1
ssVhadern
p210
(dp211
g4
I0
sg5
I1
ssVkleidern
p212
(dp213
g4
I0
sg5
I1
ssVnstigere
p214
(dp215
g4
I1
sg5
I0
ssVgeplante
p216
(dp217
g4
I0
sg5
I1
ssVreichen
p218
(dp219
g4
I1
sg5
I0
ssVvergleichen
p220
(dp221
g4
I1
sg5
I0
ssVsportspiel
p222
(dp223
g4
I1
sg5
I0
ssVeinsatzes
p224
(dp225
g4
I0
sg5
I1
ssVbildfl
p226
(dp227
g4
I1
sg5
I0
ssVstern
p228
(dp229
g4
I0
sg5
I1
ssVempfang
p230
(dp231
g4
I2
sg5
I0
ssVunzufriedenheit
p232
(dp233
g4
I0
sg5
I1
ssVreagieren
p234
(dp235
g4
I0
sg5
I1
ssVtzt
p236
(dp237
g4
I0
sg5
I1
ssVspenderniere
p238
(dp239
g4
I0
sg5
I1
ssVgehorcht
p240
(dp241
g4
I1
sg5
I0
ssVdrohnen
p242
(dp243
g4
I2
sg5
I1
ssVarmv
p244
(dp245
g4
I1
sg5
I0
ssVeiniges
p246
(dp247
g4
I1
sg5
I0
ssVzahlungen
p248
(dp249
g4
I1
sg5
I0
ssVrzel
p250
(dp251
g4
I1
sg5
I0
ssVdatenraten
p252
(dp253
g4
I1
sg5
I0
ssVedward
p254
(dp255
g4
I1
sg5
I1
ssVeinigen
p256
(dp257
g4
I2
sg5
I0
ssVwollen
p258
(dp259
g4
I0
sg5
I5
ssVunbewaffnet
p260
(dp261
g4
I1
sg5
I0
ssVallseits
p262
(dp263
g4
I1
sg5
I0
ssVpreview
p264
(dp265
g4
I1
sg5
I0
ssVmusik
p266
(dp267
g4
I1
sg5
I0
ssVkrieg
p268
(dp269
g4
I0
sg5
I2
ssVsnowden
p270
(dp271
g4
I1
sg5
I1
ssVrootzone
p272
(dp273
g4
I1
sg5
I0
ssVbildqualit
p274
(dp275
g4
I3
sg5
I0
ssVangeschlossen
p276
(dp277
g4
I1
sg5
I0
ssVstadien
p278
(dp279
g4
I1
sg5
I1
ssVkorrekt
p280
(dp281
g4
I1
sg5
I0
ssVbringt
p282
(dp283
g4
I6
sg5
I1
ssVmeere
p284
(dp285
g4
I1
sg5
I0
ssVberlin
p286
(dp287
g4
I2
sg5
I2
ssVwebbrowser
p288
(dp289
g4
I3
sg5
I0
ssVsicher
p290
(dp291
g4
I2
sg5
I0
ssVqualm
p292
(dp293
g4
I0
sg5
I1
ssVkommunizieren
p294
(dp295
g4
I1
sg5
I0
ssVchtlinge
p296
(dp297
g4
I0
sg5
I1
ssVspezialisten
p298
(dp299
g4
I1
sg5
I0
ssVmarktstart
p300
(dp301
g4
I1
sg5
I0
ssVkompaktkamera
p302
(dp303
g4
I1
sg5
I0
ssVreformieren
p304
(dp305
g4
I0
sg5
I2
ssVpolitiker
p306
(dp307
g4
I0
sg5
I1
ssVtemperaturen
p308
(dp309
g4
I1
sg5
I0
ssVweiteres
p310
(dp311
g4
I1
sg5
I0
ssVwork
p312
(dp313
g4
I2
sg5
I0
ssVeclipse
p314
(dp315
g4
I1
sg5
I0
ssVlocken
p316
(dp317
g4
I1
sg5
I1
ssVdatenbrille
p318
(dp319
g4
I1
sg5
I0
ssVere
p320
(dp321
g4
I2
sg5
I0
ssVerg
p322
(dp323
g4
I1
sg5
I0
ssVwort
p324
(dp325
g4
I3
sg5
I0
ssVweiteren
p326
(dp327
g4
I0
sg5
I1
ssVerm
p328
(dp329
g4
I1
sg5
I0
ssVkamera
p330
(dp331
g4
I1
sg5
I0
ssVerh
p332
(dp333
g4
I1
sg5
I0
ssVvergie
p334
(dp335
g4
I1
sg5
I0
ssVaugust
p336
(dp337
g4
I0
sg5
I1
ssVherung
p338
(dp339
g4
I0
sg5
I2
ssVnftig
p340
(dp341
g4
I2
sg5
I0
ssVgelungenes
p342
(dp343
g4
I1
sg5
I0
ssVwann
p344
(dp345
g4
I3
sg5
I0
ssVindien
p346
(dp347
g4
I1
sg5
I0
ssVbefragung
p348
(dp349
g4
I0
sg5
I1
ssVgeben
p350
(dp351
g4
I4
sg5
I3
ssVwirklich
p352
(dp353
g4
I1
sg5
I1
ssVlebenszeichen
p354
(dp355
g4
I1
sg5
I0
ssVumsatzplus
p356
(dp357
g4
I1
sg5
I0
ssVzielen
p358
(dp359
g4
I1
sg5
I0
ssVmitglieder
p360
(dp361
g4
I1
sg5
I0
ssVanderes
p362
(dp363
g4
I1
sg5
I0
ssVniemand
p364
(dp365
g4
I0
sg5
I1
ssVend
p366
(dp367
g4
I1
sg5
I0
ssVbund
p368
(dp369
g4
I1
sg5
I0
ssVquot
p370
(dp371
g4
I9
sg5
I0
ssVsystemdienste
p372
(dp373
g4
I1
sg5
I0
ssVmonatsanfang
p374
(dp375
g4
I1
sg5
I0
ssVarbeitszimmern
p376
(dp377
g4
I1
sg5
I0
ssVhow
p378
(dp379
g4
I0
sg5
I1
ssVrebelliert
p380
(dp381
g4
I0
sg5
I2
ssVlemoncake
p382
(dp383
g4
I1
sg5
I0
ssVbekommt
p384
(dp385
g4
I1
sg5
I1
ssVstrom
p386
(dp387
g4
I1
sg5
I0
ssVanderen
p388
(dp389
g4
I2
sg5
I1
ssVanderem
p390
(dp391
g4
I8
sg5
I0
ssVwarnungen
p392
(dp393
g4
I0
sg5
I1
ssVquipe
p394
(dp395
g4
I0
sg5
I1
ssVbeispielsweise
p396
(dp397
g4
I1
sg5
I0
ssVlab
p398
(dp399
g4
I1
sg5
I0
ssVbillig
p400
(dp401
g4
I1
sg5
I1
ssVakkulaufzeit
p402
(dp403
g4
I1
sg5
I0
ssVkaspersky
p404
(dp405
g4
I1
sg5
I0
ssVversprechen
p406
(dp407
g4
I1
sg5
I0
ssVparallel
p408
(dp409
g4
I1
sg5
I0
ssVmieter
p410
(dp411
g4
I0
sg5
I1
ssVvermeintlich
p412
(dp413
g4
I1
sg5
I0
ssVherausholen
p414
(dp415
g4
I1
sg5
I0
ssVreagiert
p416
(dp417
g4
I1
sg5
I1
ssVairprint
p418
(dp419
g4
I1
sg5
I0
ssVdeutsche
p420
(dp421
g4
I4
sg5
I4
ssVharley
p422
(dp423
g4
I1
sg5
I0
ssVtastenkombination
p424
(dp425
g4
I1
sg5
I0
ssVicann
p426
(dp427
g4
I1
sg5
I0
ssVstrg
p428
(dp429
g4
I1
sg5
I0
ssVklarstellung
p430
(dp431
g4
I1
sg5
I0
ssVchtlingen
p432
(dp433
g4
I0
sg5
I1
ssVfifa
p434
(dp435
g4
I1
sg5
I0
ssVfeedback
p436
(dp437
g4
I1
sg5
I0
ssVblockade
p438
(dp439
g4
I0
sg5
I1
ssVfall
p440
(dp441
g4
I1
sg5
I1
ssVkompromittieren
p442
(dp443
g4
I0
sg5
I1
ssVeffizienzsteigerung
p444
(dp445
g4
I1
sg5
I0
ssVhelena
p446
(dp447
g4
I0
sg5
I1
ssVnetz
p448
(dp449
g4
I4
sg5
I0
ssVnachbessern
p450
(dp451
g4
I0
sg5
I1
ssVentwicklungsumgebung
p452
(dp453
g4
I2
sg5
I0
ssVbekanntgegeben
p454
(dp455
g4
I1
sg5
I0
ssVbaugleich
p456
(dp457
g4
I1
sg5
I0
ssVhrliches
p458
(dp459
g4
I1
sg5
I0
ssVseparatisten
p460
(dp461
g4
I0
sg5
I1
ssVbisher
p462
(dp463
g4
I1
sg5
I0
ssVbrasilien
p464
(dp465
g4
I4
sg5
I2
ssVelektronics
p466
(dp467
g4
I1
sg5
I0
ssVtypisches
p468
(dp469
g4
I0
sg5
I1
ssVerlaubt
p470
(dp471
g4
I3
sg5
I1
ssVfig
p472
(dp473
g4
I1
sg5
I0
ssVvergangenen
p474
(dp475
g4
I1
sg5
I2
ssVapotheker
p476
(dp477
g4
I0
sg5
I1
ssVingenieur
p478
(dp479
g4
I0
sg5
I1
ssVgezeigt
p480
(dp481
g4
I1
sg5
I0
ssVftsf
p482
(dp483
g4
I1
sg5
I0
ssVlieblingsprojekt
p484
(dp485
g4
I0
sg5
I1
ssVcpus
p486
(dp487
g4
I1
sg5
I0
ssVgriezmann
p488
(dp489
g4
I0
sg5
I1
ssVgesch
p490
(dp491
g4
I3
sg5
I1
ssVheiko
p492
(dp493
g4
I0
sg5
I1
ssVsilver
p494
(dp495
g4
I1
sg5
I0
ssVbank
p496
(dp497
g4
I0
sg5
I1
ssVwenn
p498
(dp499
g4
I4
sg5
I0
ssVmindestens
p500
(dp501
g4
I2
sg5
I0
ssVklingen
p502
(dp503
g4
I1
sg5
I0
ssVdebut
p504
(dp505
g4
I1
sg5
I0
ssVsmartphon
p506
(dp507
g4
I1
sg5
I0
ssVtelekom
p508
(dp509
g4
I2
sg5
I0
ssVbestwert
p510
(dp511
g4
I1
sg5
I0
ssVpolitikergespr
p512
(dp513
g4
I0
sg5
I1
ssVzulegten
p514
(dp515
g4
I1
sg5
I0
ssVfitness
p516
(dp517
g4
I1
sg5
I0
ssVihn
p518
(dp519
g4
I0
sg5
I1
ssVfaikee
p520
(dp521
g4
I1
sg5
I0
ssVpupsender
p522
(dp523
g4
I0
sg5
I1
ssVadobe
p524
(dp525
g4
I4
sg5
I0
ssVenorm
p526
(dp527
g4
I1
sg5
I0
ssVnigerias
p528
(dp529
g4
I0
sg5
I1
ssVmarktdominanz
p530
(dp531
g4
I1
sg5
I0
ssVmedien
p532
(dp533
g4
I1
sg5
I1
ssVlogo
p534
(dp535
g4
I1
sg5
I0
ssVhalbherzig
p536
(dp537
g4
I0
sg5
I1
ssVunwahrscheinlich
p538
(dp539
g4
I1
sg5
I0
ssVsprudeln
p540
(dp541
g4
I0
sg5
I1
ssVfisch
p542
(dp543
g4
I0
sg5
I1
ssVnutzung
p544
(dp545
g4
I1
sg5
I0
ssVhalbe
p546
(dp547
g4
I1
sg5
I0
ssVunternehmens
p548
(dp549
g4
I1
sg5
I1
ssVdiesem
p550
(dp551
g4
I3
sg5
I0
ssVdiesen
p552
(dp553
g4
I1
sg5
I1
ssVfertigungsdatum
p554
(dp555
g4
I1
sg5
I0
ssVkombiniert
p556
(dp557
g4
I1
sg5
I0
ssVdieser
p558
(dp559
g4
I2
sg5
I2
ssVdsm
p560
(dp561
g4
I1
sg5
I0
ssVprinzessin
p562
(dp563
g4
I0
sg5
I1
ssVwerde
p564
(dp565
g4
I0
sg5
I1
ssVreader
p566
(dp567
g4
I1
sg5
I0
ssVdrittel
p568
(dp569
g4
I0
sg5
I1
ssVfoundation
p570
(dp571
g4
I1
sg5
I0
ssVfoto
p572
(dp573
g4
I2
sg5
I0
ssVforscherteam
p574
(dp575
g4
I1
sg5
I0
ssVwenigen
p576
(dp577
g4
I1
sg5
I0
ssVbrennstoffzellenauto
p578
(dp579
g4
I0
sg5
I1
ssVndert
p580
(dp581
g4
I1
sg5
I0
ssVstandard
p582
(dp583
g4
I2
sg5
I0
ssVapotheke
p584
(dp585
g4
I0
sg5
I1
ssVppige
p586
(dp587
g4
I1
sg5
I0
ssVndern
p588
(dp589
g4
I1
sg5
I1
ssVprozess
p590
(dp591
g4
I0
sg5
I3
ssVweniger
p592
(dp593
g4
I2
sg5
I1
ssVsensors
p594
(dp595
g4
I1
sg5
I0
ssVnie
p596
(dp597
g4
I0
sg5
I1
ssVvoll
p598
(dp599
g4
I1
sg5
I0
ssVlollipop
p600
(dp601
g4
I1
sg5
I0
ssVspdy
p602
(dp603
g4
I1
sg5
I0
ssVverkehrsminister
p604
(dp605
g4
I0
sg5
I1
ssVpflegeheime
p606
(dp607
g4
I0
sg5
I1
ssVgewinn
p608
(dp609
g4
I1
sg5
I0
ssVlner
p610
(dp611
g4
I0
sg5
I1
ssVsurfpauschale
p612
(dp613
g4
I1
sg5
I0
ssVopenssl
p614
(dp615
g4
I2
sg5
I0
ssVist
p616
(dp617
g4
I31
sg5
I21
ssVunabh
p618
(dp619
g4
I2
sg5
I1
ssViso
p620
(dp621
g4
I1
sg5
I0
ssVguttenberg
p622
(dp623
g4
I0
sg5
I1
ssVabgesang
p624
(dp625
g4
I0
sg5
I1
ssVisc
p626
(dp627
g4
I2
sg5
I0
ssVanschaffung
p628
(dp629
g4
I1
sg5
I0
ssVanderthalb
p630
(dp631
g4
I1
sg5
I0
ssVsident
p632
(dp633
g4
I0
sg5
I6
ssVrand
p634
(dp635
g4
I0
sg5
I1
ssVeingeben
p636
(dp637
g4
I0
sg5
I1
ssVeiner
p638
(dp639
g4
I7
sg5
I9
ssVeines
p640
(dp641
g4
I5
sg5
I6
ssVverfolgen
p642
(dp643
g4
I5
sg5
I1
ssVreihe
p644
(dp645
g4
I3
sg5
I0
ssVlauten
p646
(dp647
g4
I1
sg5
I0
ssVclermont
p648
(dp649
g4
I0
sg5
I1
ssVbeliebte
p650
(dp651
g4
I1
sg5
I0
ssVversteckten
p652
(dp653
g4
I1
sg5
I0
ssVverborgene
p654
(dp655
g4
I1
sg5
I0
ssVprogrammiersprachen
p656
(dp657
g4
I1
sg5
I0
ssVgriff
p658
(dp659
g4
I0
sg5
I1
ssVpreis
p660
(dp661
g4
I5
sg5
I0
ssVeinen
p662
(dp663
g4
I16
sg5
I8
ssVeinem
p664
(dp665
g4
I12
sg5
I10
ssVrechtspopulisten
p666
(dp667
g4
I0
sg5
I1
ssVprimark
p668
(dp669
g4
I0
sg5
I1
ssVendlich
p670
(dp671
g4
I1
sg5
I2
ssVmillionen
p672
(dp673
g4
I3
sg5
I2
ssVriesenpolizeieinsatz
p674
(dp675
g4
I0
sg5
I1
ssVservice
p676
(dp677
g4
I1
sg5
I0
ssVckzieher
p678
(dp679
g4
I0
sg5
I1
ssVrussischem
p680
(dp681
g4
I0
sg5
I1
ssVtop
p682
(dp683
g4
I6
sg5
I0
ssVoppermann
p684
(dp685
g4
I0
sg5
I1
ssVtot
p686
(dp687
g4
I1
sg5
I1
ssVhnlich
p688
(dp689
g4
I2
sg5
I0
ssVfernabsatz
p690
(dp691
g4
I1
sg5
I0
ssVckziehen
p692
(dp693
g4
I1
sg5
I0
ssVlegt
p694
(dp695
g4
I1
sg5
I0
ssVredner
p696
(dp697
g4
I1
sg5
I0
ssVlaufen
p698
(dp699
g4
I1
sg5
I0
ssVganze
p700
(dp701
g4
I1
sg5
I0
ssVerreichen
p702
(dp703
g4
I1
sg5
I0
ssVbetriebssystems
p704
(dp705
g4
I2
sg5
I0
ssVherzegowina
p706
(dp707
g4
I1
sg5
I0
ssVangleichen
p708
(dp709
g4
I0
sg5
I1
ssVtool
p710
(dp711
g4
I1
sg5
I0
ssVmamadou
p712
(dp713
g4
I0
sg5
I1
ssVministerpr
p714
(dp715
g4
I0
sg5
I2
ssVoffiziellen
p716
(dp717
g4
I2
sg5
I0
ssVstarteten
p718
(dp719
g4
I1
sg5
I0
ssVssliche
p720
(dp721
g4
I0
sg5
I1
ssVtechnik
p722
(dp723
g4
I3
sg5
I0
ssVabstimmung
p724
(dp725
g4
I0
sg5
I1
ssVntia
p726
(dp727
g4
I1
sg5
I0
ssVsticker
p728
(dp729
g4
I0
sg5
I1
ssVmodernisieren
p730
(dp731
g4
I1
sg5
I0
ssValternative
p732
(dp733
g4
I1
sg5
I0
ssVnger
p734
(dp735
g4
I1
sg5
I1
ssVballfans
p736
(dp737
g4
I0
sg5
I1
ssVstaatskasse
p738
(dp739
g4
I0
sg5
I1
ssVvielen
p740
(dp741
g4
I4
sg5
I0
ssVmachthaber
p742
(dp743
g4
I0
sg5
I1
ssVspektrumteilung
p744
(dp745
g4
I1
sg5
I0
ssVebay
p746
(dp747
g4
I1
sg5
I0
ssVproject
p748
(dp749
g4
I1
sg5
I0
ssVverraten
p750
(dp751
g4
I2
sg5
I0
ssVstreet
p752
(dp753
g4
I2
sg5
I0
ssVfahrerlebnis
p754
(dp755
g4
I1
sg5
I0
ssVwiesen
p756
(dp757
g4
I0
sg5
I1
ssVhacking
p758
(dp759
g4
I1
sg5
I0
ssVvieler
p760
(dp761
g4
I1
sg5
I0
ssVdaint
p762
(dp763
g4
I1
sg5
I0
ssVmedikamenten
p764
(dp765
g4
I0
sg5
I1
ssVmini
p766
(dp767
g4
I1
sg5
I1
ssVnadella
p768
(dp769
g4
I1
sg5
I0
ssVmodern
p770
(dp771
g4
I1
sg5
I0
ssVmussten
p772
(dp773
g4
I1
sg5
I0
ssVwiderstand
p774
(dp775
g4
I0
sg5
I2
ssVrau
p776
(dp777
g4
I1
sg5
I0
ssVmannes
p778
(dp779
g4
I1
sg5
I0
ssVpcfritz
p780
(dp781
g4
I1
sg5
I0
ssVnachfolger
p782
(dp783
g4
I3
sg5
I0
ssVseen
p784
(dp785
g4
I1
sg5
I0
ssVlautsprecher
p786
(dp787
g4
I1
sg5
I0
ssVkonverter
p788
(dp789
g4
I1
sg5
I0
ssVray
p790
(dp791
g4
I1
sg5
I0
ssVkommende
p792
(dp793
g4
I1
sg5
I0
ssVladen
p794
(dp795
g4
I1
sg5
I0
ssVreale
p796
(dp797
g4
I1
sg5
I0
ssVurteilen
p798
(dp799
g4
I0
sg5
I1
ssVderen
p800
(dp801
g4
I1
sg5
I2
ssVmaxi
p802
(dp803
g4
I1
sg5
I0
ssVbefehle
p804
(dp805
g4
I1
sg5
I0
ssVrse
p806
(dp807
g4
I1
sg5
I0
ssVdavidson
p808
(dp809
g4
I1
sg5
I0
ssVaufschluss
p810
(dp811
g4
I0
sg5
I1
ssVinzwischen
p812
(dp813
g4
I1
sg5
I0
ssVsegeld
p814
(dp815
g4
I1
sg5
I0
ssVebook
p816
(dp817
g4
I1
sg5
I0
ssVentsch
p818
(dp819
g4
I0
sg5
I1
ssVwertvolle
p820
(dp821
g4
I1
sg5
I0
ssVgermany
p822
(dp823
g4
I1
sg5
I0
ssVmindestgr
p824
(dp825
g4
I0
sg5
I2
ssVscripts
p826
(dp827
g4
I1
sg5
I0
ssVbsd
p828
(dp829
g4
I1
sg5
I0
ssVtyp
p830
(dp831
g4
I3
sg5
I0
ssVmacbook
p832
(dp833
g4
I2
sg5
I0
ssVgeschlagen
p834
(dp835
g4
I1
sg5
I0
ssVglobalem
p836
(dp837
g4
I0
sg5
I1
ssVschadenersatz
p838
(dp839
g4
I0
sg5
I1
ssVkleine
p840
(dp841
g4
I0
sg5
I1
ssVbescheidenheit
p842
(dp843
g4
I0
sg5
I1
ssVabh
p844
(dp845
g4
I0
sg5
I3
ssVtech
p846
(dp847
g4
I1
sg5
I0
ssVkanadische
p848
(dp849
g4
I1
sg5
I0
ssVpapermaster
p850
(dp851
g4
I1
sg5
I0
ssVbieber
p852
(dp853
g4
I0
sg5
I1
ssVlieber
p854
(dp855
g4
I0
sg5
I1
ssVgeschlecht
p856
(dp857
g4
I0
sg5
I1
ssVpkw
p858
(dp859
g4
I1
sg5
I0
ssVwenig
p860
(dp861
g4
I0
sg5
I1
ssVradio
p862
(dp863
g4
I3
sg5
I0
ssVgeheimzahlen
p864
(dp865
g4
I0
sg5
I1
ssVearth
p866
(dp867
g4
I1
sg5
I0
ssVhungen
p868
(dp869
g4
I2
sg5
I1
ssVstrafverfolgung
p870
(dp871
g4
I0
sg5
I2
ssVsagt
p872
(dp873
g4
I1
sg5
I1
ssVmengen
p874
(dp875
g4
I0
sg5
I1
ssVgrafikkarte
p876
(dp877
g4
I2
sg5
I0
ssVhrt
p878
(dp879
g4
I3
sg5
I0
ssVtheme
p880
(dp881
g4
I1
sg5
I0
ssVversion
p882
(dp883
g4
I11
sg5
I1
ssVkurzem
p884
(dp885
g4
I1
sg5
I0
ssVkrankenkassen
p886
(dp887
g4
I0
sg5
I1
ssValdi
p888
(dp889
g4
I4
sg5
I0
ssVsehen
p890
(dp891
g4
I3
sg5
I1
ssVdurchwachsener
p892
(dp893
g4
I1
sg5
I0
ssVkerne
p894
(dp895
g4
I3
sg5
I0
ssVipad
p896
(dp897
g4
I1
sg5
I0
ssVndigen
p898
(dp899
g4
I1
sg5
I0
ssVklein
p900
(dp901
g4
I0
sg5
I1
ssVstipendium
p902
(dp903
g4
I1
sg5
I0
ssVamazon
p904
(dp905
g4
I5
sg5
I0
ssVtipp
p906
(dp907
g4
I1
sg5
I0
ssVunsch
p908
(dp909
g4
I0
sg5
I1
ssVjohanna
p910
(dp911
g4
I0
sg5
I1
ssVsaturn
p912
(dp913
g4
I3
sg5
I0
ssVgespr
p914
(dp915
g4
I0
sg5
I2
ssVschlichter
p916
(dp917
g4
I0
sg5
I1
ssVplatz
p918
(dp919
g4
I1
sg5
I1
ssVbar
p920
(dp921
g4
I0
sg5
I1
ssVverbinden
p922
(dp923
g4
I1
sg5
I0
ssVberwachung
p924
(dp925
g4
I0
sg5
I2
ssVbem
p926
(dp927
g4
I0
sg5
I1
ssVpatch
p928
(dp929
g4
I1
sg5
I0
ssVvielmehr
p930
(dp931
g4
I1
sg5
I0
ssVrund
p932
(dp933
g4
I1
sg5
I3
ssVnichts
p934
(dp935
g4
I0
sg5
I1
ssVrelease
p936
(dp937
g4
I6
sg5
I0
ssVwachsen
p938
(dp939
g4
I1
sg5
I1
ssVsteam
p940
(dp941
g4
I4
sg5
I0
ssVverschaffen
p942
(dp943
g4
I0
sg5
I1
ssVplaystation
p944
(dp945
g4
I2
sg5
I0
ssVimpfstoff
p946
(dp947
g4
I0
sg5
I1
ssVspionage
p948
(dp949
g4
I1
sg5
I0
ssVprotestlern
p950
(dp951
g4
I1
sg5
I0
ssVnur
p952
(dp953
g4
I13
sg5
I9
ssVbertragung
p954
(dp955
g4
I2
sg5
I0
ssVjahren
p956
(dp957
g4
I5
sg5
I8
ssVnun
p958
(dp959
g4
I9
sg5
I5
ssVkonsumklima
p960
(dp961
g4
I0
sg5
I1
ssVverschoben
p962
(dp963
g4
I0
sg5
I1
ssVprotzt
p964
(dp965
g4
I1
sg5
I0
ssVschreiben
p966
(dp967
g4
I0
sg5
I2
ssVuseform
p968
(dp969
g4
I1
sg5
I0
ssVeigener
p970
(dp971
g4
I1
sg5
I0
ssVfangen
p972
(dp973
g4
I1
sg5
I0
ssVrende
p974
(dp975
g4
I1
sg5
I0
ssVamtliche
p976
(dp977
g4
I1
sg5
I0
ssVfingen
p978
(dp979
g4
I1
sg5
I0
ssVrchten
p980
(dp981
g4
I0
sg5
I1
ssVweiter
p982
(dp983
g4
I1
sg5
I4
ssVbild
p984
(dp985
g4
I4
sg5
I0
ssVbekannt
p986
(dp987
g4
I2
sg5
I0
ssVsachsen
p988
(dp989
g4
I0
sg5
I2
ssVfigur
p990
(dp991
g4
I1
sg5
I0
ssVrzt
p992
(dp993
g4
I1
sg5
I0
ssVfinger
p994
(dp995
g4
I1
sg5
I0
ssVbestraft
p996
(dp997
g4
I0
sg5
I2
ssVdirekten
p998
(dp999
g4
I1
sg5
I0
ssVsslicher
p1000
(dp1001
g4
I1
sg5
I0
ssVaufwartet
p1002
(dp1003
g4
I1
sg5
I0
ssVparallels
p1004
(dp1005
g4
I1
sg5
I0
ssVdiese
p1006
(dp1007
g4
I6
sg5
I1
ssVfraglich
p1008
(dp1009
g4
I1
sg5
I0
ssVladematte
p1010
(dp1011
g4
I1
sg5
I0
ssVfraktionschef
p1012
(dp1013
g4
I0
sg5
I1
ssVngigkeit
p1014
(dp1015
g4
I0
sg5
I1
ssVgenauer
p1016
(dp1017
g4
I1
sg5
I0
ssVunterlief
p1018
(dp1019
g4
I1
sg5
I0
ssVber
p1020
(dp1021
g4
I15
sg5
I15
ssVmittelfeldstars
p1022
(dp1023
g4
I0
sg5
I1
ssVpreiswerte
p1024
(dp1025
g4
I1
sg5
I0
ssVwear
p1026
(dp1027
g4
I3
sg5
I0
ssVnews
p1028
(dp1029
g4
I1
sg5
I0
ssVconvertible
p1030
(dp1031
g4
I1
sg5
I0
ssVnummer
p1032
(dp1033
g4
I0
sg5
I1
ssVstore
p1034
(dp1035
g4
I2
sg5
I0
ssVtablet
p1036
(dp1037
g4
I4
sg5
I0
ssVaktualisierungs
p1038
(dp1039
g4
I1
sg5
I0
ssVtage
p1040
(dp1041
g4
I1
sg5
I2
ssVkabellos
p1042
(dp1043
g4
I2
sg5
I0
ssVunz
p1044
(dp1045
g4
I1
sg5
I0
ssVkommen
p1046
(dp1047
g4
I1
sg5
I1
ssVscorpio
p1048
(dp1049
g4
I1
sg5
I0
ssVbefassen
p1050
(dp1051
g4
I1
sg5
I0
ssVund
p1052
(dp1053
g4
I89
sg5
I43
ssVgamer
p1054
(dp1055
g4
I2
sg5
I0
ssVrfel
p1056
(dp1057
g4
I0
sg5
I1
ssVchina
p1058
(dp1059
g4
I1
sg5
I2
ssVbrowser
p1060
(dp1061
g4
I4
sg5
I0
ssVcom
p1062
(dp1063
g4
I1
sg5
I0
ssVunn
p1064
(dp1065
g4
I1
sg5
I0
ssVaktuell
p1066
(dp1067
g4
I3
sg5
I0
ssVgesammelt
p1068
(dp1069
g4
I1
sg5
I0
ssVafrikanischen
p1070
(dp1071
g4
I0
sg5
I1
ssVbildschirm
p1072
(dp1073
g4
I4
sg5
I0
ssVgesenkt
p1074
(dp1075
g4
I1
sg5
I0
ssVtzung
p1076
(dp1077
g4
I1
sg5
I1
ssVinitiative
p1078
(dp1079
g4
I1
sg5
I1
ssVtreffen
p1080
(dp1081
g4
I0
sg5
I1
ssVmonat
p1082
(dp1083
g4
I1
sg5
I0
ssVsoziale
p1084
(dp1085
g4
I0
sg5
I1
ssVzuschauen
p1086
(dp1087
g4
I0
sg5
I1
ssVgekaufte
p1088
(dp1089
g4
I1
sg5
I0
ssVeinkauf
p1090
(dp1091
g4
I1
sg5
I0
ssVpatienten
p1092
(dp1093
g4
I0
sg5
I2
ssVgezahlt
p1094
(dp1095
g4
I0
sg5
I1
ssVbasis
p1096
(dp1097
g4
I2
sg5
I0
ssVchrome
p1098
(dp1099
g4
I2
sg5
I0
ssVschiefergas
p1100
(dp1101
g4
I0
sg5
I1
ssVintegrit
p1102
(dp1103
g4
I1
sg5
I0
ssVbetrifft
p1104
(dp1105
g4
I1
sg5
I0
ssVtizen
p1106
(dp1107
g4
I1
sg5
I0
ssVinterest
p1108
(dp1109
g4
I1
sg5
I0
ssVtarifknaller
p1110
(dp1111
g4
I1
sg5
I0
ssVeffizientem
p1112
(dp1113
g4
I1
sg5
I0
ssVsystemeinstellung
p1114
(dp1115
g4
I1
sg5
I0
ssVsache
p1116
(dp1117
g4
I0
sg5
I1
ssVvorstellung
p1118
(dp1119
g4
I1
sg5
I0
ssVann
p1120
(dp1121
g4
I0
sg5
I2
ssVunbeschwertheit
p1122
(dp1123
g4
I1
sg5
I0
ssVwebsite
p1124
(dp1125
g4
I1
sg5
I0
ssVdass
p1126
(dp1127
g4
I8
sg5
I3
ssVaufgabe
p1128
(dp1129
g4
I1
sg5
I0
ssVanh
p1130
(dp1131
g4
I0
sg5
I1
ssVsmartwatch
p1132
(dp1133
g4
I3
sg5
I0
ssVyou
p1134
(dp1135
g4
I0
sg5
I1
ssVbaut
p1136
(dp1137
g4
I1
sg5
I0
ssVfest
p1138
(dp1139
g4
I1
sg5
I0
ssVgrenze
p1140
(dp1141
g4
I0
sg5
I1
ssVerkennt
p1142
(dp1143
g4
I1
sg5
I0
ssVdatenknoten
p1144
(dp1145
g4
I0
sg5
I1
ssVtasten
p1146
(dp1147
g4
I1
sg5
I0
ssVkooperation
p1148
(dp1149
g4
I2
sg5
I0
ssVsselten
p1150
(dp1151
g4
I1
sg5
I0
ssVair
p1152
(dp1153
g4
I1
sg5
I0
ssVausschuss
p1154
(dp1155
g4
I0
sg5
I1
ssVlahm
p1156
(dp1157
g4
I0
sg5
I1
ssVschnelle
p1158
(dp1159
g4
I1
sg5
I0
ssVfinanziell
p1160
(dp1161
g4
I1
sg5
I0
ssVxherdan
p1162
(dp1163
g4
I0
sg5
I1
ssVangebot
p1164
(dp1165
g4
I1
sg5
I0
ssVzehnten
p1166
(dp1167
g4
I1
sg5
I0
ssVspitzenjobs
p1168
(dp1169
g4
I0
sg5
I1
ssVnull
p1170
(dp1171
g4
I0
sg5
I1
ssVverspricht
p1172
(dp1173
g4
I2
sg5
I0
ssVerschienenen
p1174
(dp1175
g4
I1
sg5
I0
ssVbesonderheit
p1176
(dp1177
g4
I1
sg5
I0
ssVplayer
p1178
(dp1179
g4
I2
sg5
I0
ssVsteuerhinterzieher
p1180
(dp1181
g4
I0
sg5
I2
ssVtze
p1182
(dp1183
g4
I0
sg5
I2
ssVgeheimdienstler
p1184
(dp1185
g4
I1
sg5
I0
ssVwerkstatt
p1186
(dp1187
g4
I0
sg5
I1
ssVoptionen
p1188
(dp1189
g4
I1
sg5
I0
ssVfotos
p1190
(dp1191
g4
I3
sg5
I0
ssVangebote
p1192
(dp1193
g4
I4
sg5
I0
ssVrebellion
p1194
(dp1195
g4
I0
sg5
I1
ssVcoole
p1196
(dp1197
g4
I1
sg5
I0
ssVangewinkelt
p1198
(dp1199
g4
I1
sg5
I0
ssVoffizielle
p1200
(dp1201
g4
I0
sg5
I1
ssVsicherheitsbedenken
p1202
(dp1203
g4
I1
sg5
I0
ssVkommission
p1204
(dp1205
g4
I0
sg5
I1
ssVtastenkombinationen
p1206
(dp1207
g4
I1
sg5
I0
ssVseines
p1208
(dp1209
g4
I4
sg5
I0
ssVjunge
p1210
(dp1211
g4
I0
sg5
I1
ssVfreih
p1212
(dp1213
g4
I2
sg5
I0
ssVmanche
p1214
(dp1215
g4
I1
sg5
I1
ssVsakho
p1216
(dp1217
g4
I0
sg5
I1
ssVverkehr
p1218
(dp1219
g4
I0
sg5
I1
ssVfunktionen
p1220
(dp1221
g4
I4
sg5
I0
ssVnig
p1222
(dp1223
g4
I0
sg5
I1
ssVjetzt
p1224
(dp1225
g4
I11
sg5
I5
ssVweite
p1226
(dp1227
g4
I0
sg5
I1
ssVbavaria
p1228
(dp1229
g4
I0
sg5
I1
ssVspottpreis
p1230
(dp1231
g4
I1
sg5
I0
ssVkim
p1232
(dp1233
g4
I0
sg5
I1
ssVtung
p1234
(dp1235
g4
I1
sg5
I0
ssVtowergeh
p1236
(dp1237
g4
I1
sg5
I0
ssVzweites
p1238
(dp1239
g4
I1
sg5
I1
ssVzweiter
p1240
(dp1241
g4
I0
sg5
I1
ssVihrem
p1242
(dp1243
g4
I2
sg5
I1
ssVihren
p1244
(dp1245
g4
I0
sg5
I2
ssVgemobbte
p1246
(dp1247
g4
I0
sg5
I1
ssVmahlow
p1248
(dp1249
g4
I1
sg5
I0
ssVstrategie
p1250
(dp1251
g4
I0
sg5
I2
ssVfusion
p1252
(dp1253
g4
I1
sg5
I0
ssVverbucht
p1254
(dp1255
g4
I1
sg5
I0
ssVenglischer
p1256
(dp1257
g4
I1
sg5
I0
ssVabgelaufenen
p1258
(dp1259
g4
I1
sg5
I0
ssVwestfalen
p1260
(dp1261
g4
I0
sg5
I1
ssVunbekannten
p1262
(dp1263
g4
I1
sg5
I0
ssVhearts
p1264
(dp1265
g4
I1
sg5
I0
ssVihres
p1266
(dp1267
g4
I2
sg5
I2
ssVihrer
p1268
(dp1269
g4
I1
sg5
I0
ssValtenpflege
p1270
(dp1271
g4
I0
sg5
I1
ssVzweiten
p1272
(dp1273
g4
I2
sg5
I0
ssVanwesenden
p1274
(dp1275
g4
I1
sg5
I0
ssVandere
p1276
(dp1277
g4
I1
sg5
I2
ssVbundestag
p1278
(dp1279
g4
I2
sg5
I3
ssVbelegen
p1280
(dp1281
g4
I1
sg5
I0
ssVsolaris
p1282
(dp1283
g4
I1
sg5
I0
ssVdenen
p1284
(dp1285
g4
I1
sg5
I0
ssVsidentenamt
p1286
(dp1287
g4
I0
sg5
I1
ssVrksten
p1288
(dp1289
g4
I1
sg5
I0
ssVausgerechnet
p1290
(dp1291
g4
I0
sg5
I1
ssVrussland
p1292
(dp1293
g4
I0
sg5
I3
ssVanders
p1294
(dp1295
g4
I2
sg5
I1
ssVcampbell
p1296
(dp1297
g4
I0
sg5
I1
ssVtselhafte
p1298
(dp1299
g4
I1
sg5
I0
ssVkutschaty
p1300
(dp1301
g4
I0
sg5
I2
ssVtransformer
p1302
(dp1303
g4
I1
sg5
I0
ssVeli
p1304
(dp1305
g4
I0
sg5
I1
ssVrabatten
p1306
(dp1307
g4
I1
sg5
I0
ssVlieferung
p1308
(dp1309
g4
I0
sg5
I1
ssVanleitung
p1310
(dp1311
g4
I1
sg5
I0
ssVweist
p1312
(dp1313
g4
I1
sg5
I0
ssVobwohl
p1314
(dp1315
g4
I1
sg5
I2
ssVfrage
p1316
(dp1317
g4
I1
sg5
I2
ssVbis
p1318
(dp1319
g4
I6
sg5
I2
ssVgenormte
p1320
(dp1321
g4
I0
sg5
I1
ssVwiderrufsbelehrungen
p1322
(dp1323
g4
I1
sg5
I0
ssVfielen
p1324
(dp1325
g4
I0
sg5
I1
ssVbasiert
p1326
(dp1327
g4
I1
sg5
I0
ssVhat
p1328
(dp1329
g4
I33
sg5
I18
ssVwissen
p1330
(dp1331
g4
I2
sg5
I0
ssVbnd
p1332
(dp1333
g4
I1
sg5
I2
ssVunter
p1334
(dp1335
g4
I12
sg5
I6
ssVsussex
p1336
(dp1337
g4
I1
sg5
I0
ssVschaltet
p1338
(dp1339
g4
I1
sg5
I0
ssVlcd
p1340
(dp1341
g4
I1
sg5
I0
ssVfirmen
p1342
(dp1343
g4
I1
sg5
I0
ssVckruf
p1344
(dp1345
g4
I2
sg5
I0
ssVunten
p1346
(dp1347
g4
I1
sg5
I0
ssVchancen
p1348
(dp1349
g4
I0
sg5
I1
ssVprozessoren
p1350
(dp1351
g4
I1
sg5
I0
ssVrumor
p1352
(dp1353
g4
I2
sg5
I0
ssVwobei
p1354
(dp1355
g4
I1
sg5
I0
ssVtexte
p1356
(dp1357
g4
I1
sg5
I0
ssVtreffens
p1358
(dp1359
g4
I1
sg5
I0
ssVeigene
p1360
(dp1361
g4
I1
sg5
I0
ssVnachbarn
p1362
(dp1363
g4
I0
sg5
I1
ssVxbox
p1364
(dp1365
g4
I2
sg5
I0
ssVsoldat
p1366
(dp1367
g4
I0
sg5
I1
ssVabonnenten
p1368
(dp1369
g4
I1
sg5
I0
ssVchannel
p1370
(dp1371
g4
I1
sg5
I0
ssVhung
p1372
(dp1373
g4
I0
sg5
I1
ssVkosten
p1374
(dp1375
g4
I1
sg5
I0
ssVrzte
p1376
(dp1377
g4
I0
sg5
I1
ssVmutma
p1378
(dp1379
g4
I1
sg5
I0
ssVverbreiteten
p1380
(dp1381
g4
I1
sg5
I0
ssVentging
p1382
(dp1383
g4
I0
sg5
I1
ssVdeutschlands
p1384
(dp1385
g4
I2
sg5
I1
ssVtechnischen
p1386
(dp1387
g4
I2
sg5
I0
ssVaussage
p1388
(dp1389
g4
I1
sg5
I0
ssVdonald
p1390
(dp1391
g4
I0
sg5
I1
ssVkostrom
p1392
(dp1393
g4
I0
sg5
I1
ssVkostet
p1394
(dp1395
g4
I3
sg5
I1
ssVmakrt
p1396
(dp1397
g4
I1
sg5
I0
ssVtutorial
p1398
(dp1399
g4
I1
sg5
I0
ssVumt
p1400
(dp1401
g4
I1
sg5
I0
ssVaufs
p1402
(dp1403
g4
I1
sg5
I0
ssVhumor
p1404
(dp1405
g4
I0
sg5
I1
ssVums
p1406
(dp1407
g4
I2
sg5
I0
ssVbisschen
p1408
(dp1409
g4
I1
sg5
I0
ssVspanische
p1410
(dp1411
g4
I0
sg5
I1
ssVwahrheit
p1412
(dp1413
g4
I1
sg5
I0
ssVsteigern
p1414
(dp1415
g4
I1
sg5
I0
ssValkoholverbot
p1416
(dp1417
g4
I0
sg5
I1
ssVtracker
p1418
(dp1419
g4
I1
sg5
I0
ssVstiften
p1420
(dp1421
g4
I0
sg5
I1
ssVgeneralstabs
p1422
(dp1423
g4
I0
sg5
I1
ssVverborgenen
p1424
(dp1425
g4
I0
sg5
I1
ssVzahlreiche
p1426
(dp1427
g4
I2
sg5
I1
ssVmehrere
p1428
(dp1429
g4
I4
sg5
I0
ssVgebrauch
p1430
(dp1431
g4
I1
sg5
I0
ssVnordrhein
p1432
(dp1433
g4
I0
sg5
I1
ssVautohersteller
p1434
(dp1435
g4
I0
sg5
I1
ssVverschwinden
p1436
(dp1437
g4
I2
sg5
I0
ssVjubil
p1438
(dp1439
g4
I1
sg5
I0
ssVversionen
p1440
(dp1441
g4
I3
sg5
I0
ssVradack
p1442
(dp1443
g4
I1
sg5
I0
ssVarbeitet
p1444
(dp1445
g4
I2
sg5
I0
ssVriesen
p1446
(dp1447
g4
I2
sg5
I0
ssVsselung
p1448
(dp1449
g4
I2
sg5
I0
ssVpost
p1450
(dp1451
g4
I1
sg5
I0
ssVregierungschef
p1452
(dp1453
g4
I0
sg5
I2
ssVbahn
p1454
(dp1455
g4
I0
sg5
I1
ssVdead
p1456
(dp1457
g4
I1
sg5
I0
ssVzur
p1458
(dp1459
g4
I22
sg5
I10
ssVdarunter
p1460
(dp1461
g4
I1
sg5
I0
ssVstartschuss
p1462
(dp1463
g4
I1
sg5
I0
ssVkoordinieren
p1464
(dp1465
g4
I1
sg5
I0
ssVtechnologie
p1466
(dp1467
g4
I0
sg5
I1
ssVdonnerstageinen
p1468
(dp1469
g4
I1
sg5
I0
ssVgehandelt
p1470
(dp1471
g4
I0
sg5
I1
ssVtochter
p1472
(dp1473
g4
I1
sg5
I0
ssVmithilfe
p1474
(dp1475
g4
I1
sg5
I0
ssVplus
p1476
(dp1477
g4
I1
sg5
I0
ssVerpressungstrojaner
p1478
(dp1479
g4
I1
sg5
I0
ssVazure
p1480
(dp1481
g4
I1
sg5
I0
ssVzun
p1482
(dp1483
g4
I2
sg5
I0
ssVstaatsregierung
p1484
(dp1485
g4
I0
sg5
I1
ssVwarenhaus
p1486
(dp1487
g4
I0
sg5
I1
ssVzum
p1488
(dp1489
g4
I18
sg5
I11
ssVprozessbeobachter
p1490
(dp1491
g4
I0
sg5
I1
ssVchte
p1492
(dp1493
g4
I4
sg5
I0
ssVthermostat
p1494
(dp1495
g4
I1
sg5
I0
ssVbritische
p1496
(dp1497
g4
I1
sg5
I0
ssVkrebskranken
p1498
(dp1499
g4
I1
sg5
I0
ssVferm
p1500
(dp1501
g4
I1
sg5
I0
ssVgeeignet
p1502
(dp1503
g4
I2
sg5
I0
ssVmeinungen
p1504
(dp1505
g4
I0
sg5
I1
ssVinternetgiganten
p1506
(dp1507
g4
I0
sg5
I1
ssVthermostate
p1508
(dp1509
g4
I1
sg5
I0
ssVanbieter
p1510
(dp1511
g4
I1
sg5
I0
ssVvorgestelltes
p1512
(dp1513
g4
I1
sg5
I0
ssVabblitzen
p1514
(dp1515
g4
I0
sg5
I1
ssVstandardfunktionen
p1516
(dp1517
g4
I1
sg5
I0
ssVrkei
p1518
(dp1519
g4
I0
sg5
I1
ssVvorkommen
p1520
(dp1521
g4
I0
sg5
I1
ssVsupport
p1522
(dp1523
g4
I1
sg5
I0
ssVfabrik
p1524
(dp1525
g4
I1
sg5
I0
ssVtzen
p1526
(dp1527
g4
I0
sg5
I1
ssVgig
p1528
(dp1529
g4
I1
sg5
I0
ssVftigt
p1530
(dp1531
g4
I0
sg5
I1
ssVlage
p1532
(dp1533
g4
I0
sg5
I1
ssVwas
p1534
(dp1535
g4
I5
sg5
I1
ssVwar
p1536
(dp1537
g4
I6
sg5
I5
ssVnstig
p1538
(dp1539
g4
I1
sg5
I0
ssVsmartphonesystems
p1540
(dp1541
g4
I1
sg5
I0
ssVmordkomplott
p1542
(dp1543
g4
I0
sg5
I1
ssVkabelsalat
p1544
(dp1545
g4
I1
sg5
I0
ssVentpuppen
p1546
(dp1547
g4
I1
sg5
I0
ssVunsichtbare
p1548
(dp1549
g4
I0
sg5
I1
ssVbatman
p1550
(dp1551
g4
I1
sg5
I0
ssVsicherheitsgr
p1552
(dp1553
g4
I1
sg5
I0
ssVzeigt
p1554
(dp1555
g4
I6
sg5
I4
ssVbereit
p1556
(dp1557
g4
I3
sg5
I0
ssVtelefonat
p1558
(dp1559
g4
I0
sg5
I1
ssVleider
p1560
(dp1561
g4
I1
sg5
I0
ssVangesehen
p1562
(dp1563
g4
I1
sg5
I0
ssVeinzubinden
p1564
(dp1565
g4
I0
sg5
I1
ssVverurteilte
p1566
(dp1567
g4
I0
sg5
I1
ssVmuss
p1568
(dp1569
g4
I2
sg5
I4
ssVarme
p1570
(dp1571
g4
I0
sg5
I1
ssVisis
p1572
(dp1573
g4
I0
sg5
I2
ssVpiketty
p1574
(dp1575
g4
I0
sg5
I1
ssVkabelloser
p1576
(dp1577
g4
I1
sg5
I0
ssVmaximum
p1578
(dp1579
g4
I1
sg5
I0
ssVteilweise
p1580
(dp1581
g4
I3
sg5
I0
ssVentwicklungsl
p1582
(dp1583
g4
I0
sg5
I1
ssVdringend
p1584
(dp1585
g4
I0
sg5
I2
ssVnuklearwaffeneinsatz
p1586
(dp1587
g4
I0
sg5
I1
ssVmails
p1588
(dp1589
g4
I2
sg5
I0
ssVbedienen
p1590
(dp1591
g4
I2
sg5
I0
ssVwichtiger
p1592
(dp1593
g4
I0
sg5
I2
ssVopenbsd
p1594
(dp1595
g4
I1
sg5
I0
ssVmoderne
p1596
(dp1597
g4
I1
sg5
I0
ssVzudem
p1598
(dp1599
g4
I4
sg5
I1
ssVcomputing
p1600
(dp1601
g4
I7
sg5
I0
ssVerscheinen
p1602
(dp1603
g4
I1
sg5
I0
ssVgeliebtes
p1604
(dp1605
g4
I1
sg5
I0
ssVprivatkunden
p1606
(dp1607
g4
I1
sg5
I0
ssVklinsmann
p1608
(dp1609
g4
I0
sg5
I2
ssVunansehnlichen
p1610
(dp1611
g4
I0
sg5
I1
ssVautokonzern
p1612
(dp1613
g4
I1
sg5
I0
ssVnigsschwester
p1614
(dp1615
g4
I0
sg5
I1
ssVnnt
p1616
(dp1617
g4
I2
sg5
I0
ssVcheck
p1618
(dp1619
g4
I3
sg5
I0
ssVregime
p1620
(dp1621
g4
I0
sg5
I1
ssVautomatischen
p1622
(dp1623
g4
I1
sg5
I0
ssVbuzzwords
p1624
(dp1625
g4
I1
sg5
I0
ssVbajonett
p1626
(dp1627
g4
I1
sg5
I0
ssVpilotenjob
p1628
(dp1629
g4
I0
sg5
I1
ssVwollten
p1630
(dp1631
g4
I0
sg5
I1
ssVjony
p1632
(dp1633
g4
I1
sg5
I0
ssVpremier
p1634
(dp1635
g4
I0
sg5
I5
ssVwirft
p1636
(dp1637
g4
I1
sg5
I2
ssVbanditen
p1638
(dp1639
g4
I0
sg5
I1
ssVjong
p1640
(dp1641
g4
I0
sg5
I1
ssVsende
p1642
(dp1643
g4
I1
sg5
I0
ssVdigital
p1644
(dp1645
g4
I1
sg5
I0
ssVtest
p1646
(dp1647
g4
I13
sg5
I0
ssVtig
p1648
(dp1649
g4
I1
sg5
I0
ssVrepublik
p1650
(dp1651
g4
I0
sg5
I2
ssVuntersucht
p1652
(dp1653
g4
I1
sg5
I0
ssVbellevue
p1654
(dp1655
g4
I0
sg5
I1
ssVamerikanische
p1656
(dp1657
g4
I1
sg5
I1
ssVlegte
p1658
(dp1659
g4
I1
sg5
I0
ssVdies
p1660
(dp1661
g4
I1
sg5
I0
ssVautonomik
p1662
(dp1663
g4
I1
sg5
I0
ssVupdate
p1664
(dp1665
g4
I5
sg5
I0
ssVftskunden
p1666
(dp1667
g4
I1
sg5
I0
ssVtypbezeichnung
p1668
(dp1669
g4
I1
sg5
I0
ssVaward
p1670
(dp1671
g4
I2
sg5
I0
ssVmodell
p1672
(dp1673
g4
I4
sg5
I0
ssVfriedhelm
p1674
(dp1675
g4
I0
sg5
I2
ssVversteher
p1676
(dp1677
g4
I0
sg5
I1
ssVreicht
p1678
(dp1679
g4
I1
sg5
I1
ssVwahlberechtigten
p1680
(dp1681
g4
I0
sg5
I1
ssVfor
p1682
(dp1683
g4
I1
sg5
I0
ssVglass
p1684
(dp1685
g4
I1
sg5
I1
ssVaufbau
p1686
(dp1687
g4
I1
sg5
I0
ssVreiche
p1688
(dp1689
g4
I0
sg5
I1
ssVbedr
p1690
(dp1691
g4
I0
sg5
I1
ssVmeilenstein
p1692
(dp1693
g4
I1
sg5
I0
ssVgewann
p1694
(dp1695
g4
I0
sg5
I1
ssVrecep
p1696
(dp1697
g4
I0
sg5
I1
ssVschritt
p1698
(dp1699
g4
I1
sg5
I0
ssVkanzleramt
p1700
(dp1701
g4
I1
sg5
I0
ssVcoach
p1702
(dp1703
g4
I0
sg5
I1
ssVbearbeiten
p1704
(dp1705
g4
I2
sg5
I0
ssVbegeistert
p1706
(dp1707
g4
I1
sg5
I0
ssVweshalb
p1708
(dp1709
g4
I1
sg5
I0
ssVngerversionen
p1710
(dp1711
g4
I1
sg5
I0
ssVthemen
p1712
(dp1713
g4
I1
sg5
I0
ssVschnorcheln
p1714
(dp1715
g4
I1
sg5
I0
ssVllt
p1716
(dp1717
g4
I3
sg5
I1
ssVtee
p1718
(dp1719
g4
I0
sg5
I1
ssValternativen
p1720
(dp1721
g4
I1
sg5
I1
ssVsieht
p1722
(dp1723
g4
I4
sg5
I2
ssVselbst
p1724
(dp1725
g4
I2
sg5
I3
ssVfrauen
p1726
(dp1727
g4
I0
sg5
I1
ssVcreative
p1728
(dp1729
g4
I2
sg5
I0
ssVrot
p1730
(dp1731
g4
I1
sg5
I1
ssVsteuern
p1732
(dp1733
g4
I2
sg5
I0
ssVmacht
p1734
(dp1735
g4
I1
sg5
I4
ssVware
p1736
(dp1737
g4
I0
sg5
I1
ssVmeisten
p1738
(dp1739
g4
I1
sg5
I0
ssVchtlichen
p1740
(dp1741
g4
I1
sg5
I0
ssVbeste
p1742
(dp1743
g4
I2
sg5
I0
ssVmittlerweile
p1744
(dp1745
g4
I1
sg5
I0
ssVmarkt
p1746
(dp1747
g4
I2
sg5
I2
ssVumen
p1748
(dp1749
g4
I0
sg5
I2
ssVentdeckt
p1750
(dp1751
g4
I2
sg5
I1
ssVbrandgefahr
p1752
(dp1753
g4
I2
sg5
I0
ssVtusk
p1754
(dp1755
g4
I0
sg5
I3
ssVtarife
p1756
(dp1757
g4
I1
sg5
I0
ssVverliebt
p1758
(dp1759
g4
I1
sg5
I0
ssVdragonfly
p1760
(dp1761
g4
I1
sg5
I0
ssVsmartphone
p1762
(dp1763
g4
I13
sg5
I0
ssVbosnien
p1764
(dp1765
g4
I1
sg5
I0
ssVaigner
p1766
(dp1767
g4
I0
sg5
I1
ssVihnen
p1768
(dp1769
g4
I9
sg5
I1
ssVparallelspiele
p1770
(dp1771
g4
I1
sg5
I0
ssVjahresende
p1772
(dp1773
g4
I1
sg5
I0
ssVmaliki
p1774
(dp1775
g4
I0
sg5
I1
ssVpixma
p1776
(dp1777
g4
I1
sg5
I0
ssVminute
p1778
(dp1779
g4
I1
sg5
I0
ssVmeistern
p1780
(dp1781
g4
I0
sg5
I1
ssVglichst
p1782
(dp1783
g4
I1
sg5
I0
ssVklassisches
p1784
(dp1785
g4
I3
sg5
I0
ssVmahl
p1786
(dp1787
g4
I1
sg5
I0
ssVdie
p1788
(dp1789
g4
I95
sg5
I74
ssVultrabook
p1790
(dp1791
g4
I1
sg5
I0
ssVbrother
p1792
(dp1793
g4
I1
sg5
I0
ssVzerst
p1794
(dp1795
g4
I1
sg5
I1
ssVwussten
p1796
(dp1797
g4
I1
sg5
I0
ssVgut
p1798
(dp1799
g4
I2
sg5
I1
ssVhinlegen
p1800
(dp1801
g4
I1
sg5
I0
ssVsogar
p1802
(dp1803
g4
I3
sg5
I0
ssVklassischen
p1804
(dp1805
g4
I2
sg5
I0
ssVjedenfalls
p1806
(dp1807
g4
I1
sg5
I0
ssVthe
p1808
(dp1809
g4
I6
sg5
I0
ssVhte
p1810
(dp1811
g4
I0
sg5
I1
ssVrevolution
p1812
(dp1813
g4
I1
sg5
I0
ssVhtc
p1814
(dp1815
g4
I1
sg5
I0
ssVdeutschen
p1816
(dp1817
g4
I2
sg5
I5
ssVzeitversetzt
p1818
(dp1819
g4
I1
sg5
I0
ssVzahlen
p1820
(dp1821
g4
I0
sg5
I2
ssVdeutscher
p1822
(dp1823
g4
I0
sg5
I1
ssVtrotz
p1824
(dp1825
g4
I1
sg5
I2
ssVfehler
p1826
(dp1827
g4
I2
sg5
I0
ssVkompaktes
p1828
(dp1829
g4
I1
sg5
I0
ssVbrandenburger
p1830
(dp1831
g4
I0
sg5
I1
ssVvordergrund
p1832
(dp1833
g4
I1
sg5
I0
ssVafghanistan
p1834
(dp1835
g4
I0
sg5
I1
ssVstreicht
p1836
(dp1837
g4
I1
sg5
I1
ssVankommt
p1838
(dp1839
g4
I0
sg5
I1
ssVwahl
p1840
(dp1841
g4
I0
sg5
I2
ssVauflagen
p1842
(dp1843
g4
I0
sg5
I1
ssVarbeiten
p1844
(dp1845
g4
I1
sg5
I1
ssVstadt
p1846
(dp1847
g4
I1
sg5
I0
ssVheren
p1848
(dp1849
g4
I1
sg5
I0
ssVgelegenheit
p1850
(dp1851
g4
I0
sg5
I1
ssVrezepte
p1852
(dp1853
g4
I0
sg5
I1
ssVdurchstartendes
p1854
(dp1855
g4
I1
sg5
I0
ssVspitzenangebote
p1856
(dp1857
g4
I1
sg5
I0
ssVexplosion
p1858
(dp1859
g4
I0
sg5
I1
ssVtrennung
p1860
(dp1861
g4
I1
sg5
I0
ssVkonsequenzen
p1862
(dp1863
g4
I0
sg5
I2
ssVadressen
p1864
(dp1865
g4
I1
sg5
I0
ssVmakeup
p1866
(dp1867
g4
I0
sg5
I1
ssVchste
p1868
(dp1869
g4
I3
sg5
I1
ssVbringen
p1870
(dp1871
g4
I1
sg5
I0
ssVvorsichtig
p1872
(dp1873
g4
I1
sg5
I1
ssVerreicht
p1874
(dp1875
g4
I2
sg5
I3
ssVamtsvorg
p1876
(dp1877
g4
I0
sg5
I1
ssVunentschieden
p1878
(dp1879
g4
I0
sg5
I2
ssVapache
p1880
(dp1881
g4
I1
sg5
I0
ssVzusammengetragen
p1882
(dp1883
g4
I2
sg5
I0
ssVbargeld
p1884
(dp1885
g4
I0
sg5
I1
ssVbox
p1886
(dp1887
g4
I1
sg5
I0
ssVheikel
p1888
(dp1889
g4
I1
sg5
I0
ssVoffen
p1890
(dp1891
g4
I0
sg5
I3
ssVversetzt
p1892
(dp1893
g4
I0
sg5
I1
ssVversuch
p1894
(dp1895
g4
I1
sg5
I0
ssVsungsstufen
p1896
(dp1897
g4
I1
sg5
I0
ssVgeschw
p1898
(dp1899
g4
I0
sg5
I1
ssVeinschalten
p1900
(dp1901
g4
I1
sg5
I0
ssVdomains
p1902
(dp1903
g4
I1
sg5
I0
ssVextrem
p1904
(dp1905
g4
I2
sg5
I0
ssVneueste
p1906
(dp1907
g4
I3
sg5
I0
ssVubisoft
p1908
(dp1909
g4
I1
sg5
I0
ssVinstituts
p1910
(dp1911
g4
I1
sg5
I0
ssVwerbefestival
p1912
(dp1913
g4
I1
sg5
I0
ssVdistanz
p1914
(dp1915
g4
I1
sg5
I0
ssVesport
p1916
(dp1917
g4
I1
sg5
I0
ssVrambo
p1918
(dp1919
g4
I0
sg5
I1
ssVmodul
p1920
(dp1921
g4
I1
sg5
I0
ssVbleibt
p1922
(dp1923
g4
I3
sg5
I0
ssVweigert
p1924
(dp1925
g4
I0
sg5
I1
ssVips
p1926
(dp1927
g4
I1
sg5
I0
ssVbestimmt
p1928
(dp1929
g4
I1
sg5
I0
ssVmodus
p1930
(dp1931
g4
I1
sg5
I0
ssVverge
p1932
(dp1933
g4
I1
sg5
I0
ssVschlummern
p1934
(dp1935
g4
I1
sg5
I0
ssVmobil
p1936
(dp1937
g4
I1
sg5
I0
ssVwiderlicher
p1938
(dp1939
g4
I0
sg5
I2
ssVstimmung
p1940
(dp1941
g4
I0
sg5
I1
ssVkurden
p1942
(dp1943
g4
I0
sg5
I1
ssVgekauft
p1944
(dp1945
g4
I1
sg5
I0
ssVberti
p1946
(dp1947
g4
I0
sg5
I1
ssVsteigt
p1948
(dp1949
g4
I0
sg5
I1
ssVdaneben
p1950
(dp1951
g4
I1
sg5
I0
ssVsports
p1952
(dp1953
g4
I1
sg5
I0
ssVlive
p1954
(dp1955
g4
I8
sg5
I0
ssViphone
p1956
(dp1957
g4
I2
sg5
I0
ssVunzumutbar
p1958
(dp1959
g4
I0
sg5
I1
ssVfilms
p1960
(dp1961
g4
I0
sg5
I1
ssVeinfacher
p1962
(dp1963
g4
I1
sg5
I0
ssVoffiziell
p1964
(dp1965
g4
I2
sg5
I0
ssVwiderlichen
p1966
(dp1967
g4
I0
sg5
I1
ssVlaune
p1968
(dp1969
g4
I1
sg5
I0
ssVversucht
p1970
(dp1971
g4
I0
sg5
I1
ssVgegen
p1972
(dp1973
g4
I11
sg5
I23
ssVsymantec
p1974
(dp1975
g4
I1
sg5
I0
ssVscannt
p1976
(dp1977
g4
I1
sg5
I0
ssVgarantie
p1978
(dp1979
g4
I1
sg5
I0
ssVhaftpr
p1980
(dp1981
g4
I1
sg5
I0
ssVobersten
p1982
(dp1983
g4
I0
sg5
I1
ssVletzte
p1984
(dp1985
g4
I1
sg5
I1
ssVversuche
p1986
(dp1987
g4
I0
sg5
I1
ssVunsere
p1988
(dp1989
g4
I1
sg5
I2
ssVtierschutz
p1990
(dp1991
g4
I0
sg5
I1
ssVfolgen
p1992
(dp1993
g4
I0
sg5
I1
ssVsieben
p1994
(dp1995
g4
I0
sg5
I2
ssVantiviren
p1996
(dp1997
g4
I1
sg5
I0
ssVcar
p1998
(dp1999
g4
I1
sg5
I0
ssVdlinge
p2000
(dp2001
g4
I1
sg5
I0
ssVzeugen
p2002
(dp2003
g4
I0
sg5
I1
ssVhaushaltsdebatte
p2004
(dp2005
g4
I0
sg5
I1
ssVihre
p2006
(dp2007
g4
I5
sg5
I3
ssVmittwoch
p2008
(dp2009
g4
I1
sg5
I0
ssVnstlerisches
p2010
(dp2011
g4
I0
sg5
I1
ssVstream
p2012
(dp2013
g4
I6
sg5
I0
ssVraucht
p2014
(dp2015
g4
I0
sg5
I1
ssVnexus
p2016
(dp2017
g4
I1
sg5
I0
ssVchip
p2018
(dp2019
g4
I2
sg5
I0
ssVlockt
p2020
(dp2021
g4
I1
sg5
I0
ssVtinten
p2022
(dp2023
g4
I2
sg5
I0
ssVspa
p2024
(dp2025
g4
I1
sg5
I1
ssVschlie
p2026
(dp2027
g4
I2
sg5
I0
ssVspd
p2028
(dp2029
g4
I0
sg5
I6
ssVbesseres
p2030
(dp2031
g4
I1
sg5
I0
ssVdrama
p2032
(dp2033
g4
I1
sg5
I0
ssVbezeichnet
p2034
(dp2035
g4
I1
sg5
I1
ssVjustizministerium
p2036
(dp2037
g4
I0
sg5
I1
ssVstecken
p2038
(dp2039
g4
I1
sg5
I0
ssVeurop
p2040
(dp2041
g4
I1
sg5
I2
ssVruder
p2042
(dp2043
g4
I2
sg5
I0
ssVeinzelfall
p2044
(dp2045
g4
I1
sg5
I0
ssVregelm
p2046
(dp2047
g4
I1
sg5
I0
ssVerleiden
p2048
(dp2049
g4
I0
sg5
I1
ssVregeln
p2050
(dp2051
g4
I1
sg5
I1
ssVbegr
p2052
(dp2053
g4
I2
sg5
I0
ssVbesseren
p2054
(dp2055
g4
I3
sg5
I0
ssVvodafone
p2056
(dp2057
g4
I1
sg5
I0
ssVallerdings
p2058
(dp2059
g4
I3
sg5
I0
ssVproduct
p2060
(dp2061
g4
I1
sg5
I0
ssVdesigner
p2062
(dp2063
g4
I3
sg5
I0
ssVexplorer
p2064
(dp2065
g4
I3
sg5
I0
ssVprotection
p2066
(dp2067
g4
I1
sg5
I0
ssVteuren
p2068
(dp2069
g4
I1
sg5
I0
ssVrivalen
p2070
(dp2071
g4
I1
sg5
I0
ssVraucher
p2072
(dp2073
g4
I0
sg5
I3
ssVmac
p2074
(dp2075
g4
I3
sg5
I0
ssVbislang
p2076
(dp2077
g4
I1
sg5
I1
ssVmag
p2078
(dp2079
g4
I1
sg5
I0
ssVspitzentreffen
p2080
(dp2081
g4
I0
sg5
I1
ssVmai
p2082
(dp2083
g4
I2
sg5
I0
ssVexekutionen
p2084
(dp2085
g4
I0
sg5
I1
ssVmal
p2086
(dp2087
g4
I5
sg5
I1
ssVman
p2088
(dp2089
g4
I6
sg5
I3
ssVneuheiten
p2090
(dp2091
g4
I2
sg5
I0
ssVsofort
p2092
(dp2093
g4
I3
sg5
I0
ssVbaureihe
p2094
(dp2095
g4
I1
sg5
I0
ssVssl
p2096
(dp2097
g4
I1
sg5
I0
ssVpiloten
p2098
(dp2099
g4
I0
sg5
I1
ssVbeeindruckend
p2100
(dp2101
g4
I0
sg5
I1
ssVinnern
p2102
(dp2103
g4
I1
sg5
I0
ssVverschwand
p2104
(dp2105
g4
I1
sg5
I0
ssVsseldorf
p2106
(dp2107
g4
I0
sg5
I1
ssVngnissen
p2108
(dp2109
g4
I0
sg5
I1
ssVafrikameister
p2110
(dp2111
g4
I0
sg5
I1
ssVdenken
p2112
(dp2113
g4
I1
sg5
I0
ssVgewinnen
p2114
(dp2115
g4
I0
sg5
I2
ssVbaustellen
p2116
(dp2117
g4
I0
sg5
I1
ssVimmer
p2118
(dp2119
g4
I3
sg5
I0
ssVzerrt
p2120
(dp2121
g4
I1
sg5
I0
ssVkarton
p2122
(dp2123
g4
I1
sg5
I0
ssVtablets
p2124
(dp2125
g4
I3
sg5
I1
ssVspielst
p2126
(dp2127
g4
I1
sg5
I0
ssVaber
p2128
(dp2129
g4
I13
sg5
I8
ssVverlautbarungen
p2130
(dp2131
g4
I1
sg5
I0
ssVverordnen
p2132
(dp2133
g4
I0
sg5
I1
ssVtolerieren
p2134
(dp2135
g4
I0
sg5
I1
ssVstartete
p2136
(dp2137
g4
I0
sg5
I1
ssVsitze
p2138
(dp2139
g4
I0
sg5
I1
ssVsatya
p2140
(dp2141
g4
I1
sg5
I0
ssVbescheiden
p2142
(dp2143
g4
I1
sg5
I0
ssVgte
p2144
(dp2145
g4
I0
sg5
I2
ssVhohe
p2146
(dp2147
g4
I1
sg5
I0
ssVduplex
p2148
(dp2149
g4
I1
sg5
I0
ssVorganisation
p2150
(dp2151
g4
I1
sg5
I0
ssVwallach
p2152
(dp2153
g4
I0
sg5
I1
ssVgen
p2154
(dp2155
g4
I1
sg5
I2
ssVgebracht
p2156
(dp2157
g4
I2
sg5
I1
ssVdamerika
p2158
(dp2159
g4
I0
sg5
I1
ssVwindow
p2160
(dp2161
g4
I1
sg5
I0
ssVeinstiegsmodell
p2162
(dp2163
g4
I1
sg5
I0
ssVumgarnt
p2164
(dp2165
g4
I0
sg5
I1
ssVvolksrepublik
p2166
(dp2167
g4
I0
sg5
I1
ssVmail
p2168
(dp2169
g4
I2
sg5
I0
ssVbeherrscht
p2170
(dp2171
g4
I1
sg5
I0
ssVgel
p2172
(dp2173
g4
I0
sg5
I1
ssVmaik
p2174
(dp2175
g4
I1
sg5
I0
ssVzeigen
p2176
(dp2177
g4
I10
sg5
I0
ssVvorhaben
p2178
(dp2179
g4
I0
sg5
I1
ssVpatientin
p2180
(dp2181
g4
I0
sg5
I1
ssVbeim
p2182
(dp2183
g4
I6
sg5
I2
ssVdemokratisch
p2184
(dp2185
g4
I0
sg5
I1
ssVgemeldet
p2186
(dp2187
g4
I1
sg5
I0
ssVnation
p2188
(dp2189
g4
I1
sg5
I1
ssVinterview
p2190
(dp2191
g4
I0
sg5
I1
ssVkomponenten
p2192
(dp2193
g4
I2
sg5
I0
ssVfahrverbot
p2194
(dp2195
g4
I0
sg5
I1
ssVnow
p2196
(dp2197
g4
I1
sg5
I0
ssVhall
p2198
(dp2199
g4
I1
sg5
I0
ssVausstrahlen
p2200
(dp2201
g4
I1
sg5
I0
ssVfernsehen
p2202
(dp2203
g4
I2
sg5
I0
ssVsparpreis
p2204
(dp2205
g4
I1
sg5
I0
ssVspielen
p2206
(dp2207
g4
I1
sg5
I2
ssVwaffenexporte
p2208
(dp2209
g4
I0
sg5
I1
ssVdeutschland
p2210
(dp2211
g4
I6
sg5
I8
ssVservern
p2212
(dp2213
g4
I1
sg5
I0
ssVfrontmann
p2214
(dp2215
g4
I1
sg5
I0
ssVkern
p2216
(dp2217
g4
I1
sg5
I0
ssVlieben
p2218
(dp2219
g4
I0
sg5
I1
ssVgesetzespaket
p2220
(dp2221
g4
I0
sg5
I1
ssVspeichert
p2222
(dp2223
g4
I1
sg5
I0
ssVfernseher
p2224
(dp2225
g4
I4
sg5
I1
ssVspieler
p2226
(dp2227
g4
I1
sg5
I0
ssVsuperlativen
p2228
(dp2229
g4
I1
sg5
I0
ssVkann
p2230
(dp2231
g4
I6
sg5
I3
ssVverkauft
p2232
(dp2233
g4
I2
sg5
I0
ssVbergabe
p2234
(dp2235
g4
I1
sg5
I0
ssVhonduras
p2236
(dp2237
g4
I1
sg5
I3
ssVwiderrufsbelehrung
p2238
(dp2239
g4
I1
sg5
I0
ssVbesch
p2240
(dp2241
g4
I0
sg5
I2
ssVentscheidend
p2242
(dp2243
g4
I0
sg5
I1
ssVrlich
p2244
(dp2245
g4
I1
sg5
I0
ssVviertelfinale
p2246
(dp2247
g4
I0
sg5
I1
ssVsteuerbetr
p2248
(dp2249
g4
I0
sg5
I1
ssVwachstumsmotor
p2250
(dp2251
g4
I0
sg5
I1
ssVerweiterter
p2252
(dp2253
g4
I1
sg5
I0
ssVzuschreiben
p2254
(dp2255
g4
I1
sg5
I0
ssVblu
p2256
(dp2257
g4
I1
sg5
I0
ssVoklahoma
p2258
(dp2259
g4
I0
sg5
I2
ssVnner
p2260
(dp2261
g4
I1
sg5
I1
ssVprofis
p2262
(dp2263
g4
I1
sg5
I0
ssVlang
p2264
(dp2265
g4
I0
sg5
I1
ssVnnen
p2266
(dp2267
g4
I13
sg5
I0
ssVndler
p2268
(dp2269
g4
I1
sg5
I0
ssVwirksamkeit
p2270
(dp2271
g4
I0
sg5
I1
ssVinternet
p2272
(dp2273
g4
I16
sg5
I0
ssVsicherheitsl
p2274
(dp2275
g4
I1
sg5
I0
ssVtoyotas
p2276
(dp2277
g4
I0
sg5
I1
ssVdrohne
p2278
(dp2279
g4
I1
sg5
I0
ssVmonster
p2280
(dp2281
g4
I0
sg5
I1
ssVgesorgt
p2282
(dp2283
g4
I0
sg5
I1
ssVinternetseiten
p2284
(dp2285
g4
I1
sg5
I0
ssVort
p2286
(dp2287
g4
I1
sg5
I0
ssVkooperieren
p2288
(dp2289
g4
I0
sg5
I2
ssVauch
p2290
(dp2291
g4
I35
sg5
I9
ssVspiel
p2292
(dp2293
g4
I3
sg5
I4
ssVabschuss
p2294
(dp2295
g4
I0
sg5
I1
ssVziel
p2296
(dp2297
g4
I1
sg5
I0
ssVklarer
p2298
(dp2299
g4
I1
sg5
I0
ssVkeinen
p2300
(dp2301
g4
I1
sg5
I1
ssVgott
p2302
(dp2303
g4
I1
sg5
I0
ssVkorrigieren
p2304
(dp2305
g4
I0
sg5
I1
ssVstrafma
p2306
(dp2307
g4
I0
sg5
I1
ssVachtelfinale
p2308
(dp2309
g4
I1
sg5
I5
ssVngige
p2310
(dp2311
g4
I1
sg5
I0
ssVrollen
p2312
(dp2313
g4
I1
sg5
I0
ssVprogramming
p2314
(dp2315
g4
I1
sg5
I0
ssVscheint
p2316
(dp2317
g4
I2
sg5
I0
ssVwiderspr
p2318
(dp2319
g4
I1
sg5
I0
ssVunkonventionellen
p2320
(dp2321
g4
I0
sg5
I1
ssVckzug
p2322
(dp2323
g4
I0
sg5
I1
ssVwirken
p2324
(dp2325
g4
I0
sg5
I1
ssVabgeschlossen
p2326
(dp2327
g4
I1
sg5
I1
ssVliefern
p2328
(dp2329
g4
I2
sg5
I1
ssVtipps
p2330
(dp2331
g4
I0
sg5
I2
ssVeinmaleffekten
p2332
(dp2333
g4
I1
sg5
I0
ssVpunkte
p2334
(dp2335
g4
I1
sg5
I0
ssVpredictive
p2336
(dp2337
g4
I1
sg5
I0
ssVleitete
p2338
(dp2339
g4
I1
sg5
I1
ssVhochaufl
p2340
(dp2341
g4
I1
sg5
I0
ssVone
p2342
(dp2343
g4
I5
sg5
I0
ssVvideodienst
p2344
(dp2345
g4
I1
sg5
I0
ssVfast
p2346
(dp2347
g4
I1
sg5
I0
ssVbibliothek
p2348
(dp2349
g4
I1
sg5
I0
ssVunternehmen
p2350
(dp2351
g4
I3
sg5
I0
ssVkurzfristig
p2352
(dp2353
g4
I0
sg5
I1
ssVopen
p2354
(dp2355
g4
I2
sg5
I0
ssVnahmen
p2356
(dp2357
g4
I0
sg5
I1
ssVcktreten
p2358
(dp2359
g4
I0
sg5
I1
ssVschafft
p2360
(dp2361
g4
I2
sg5
I1
ssVdoppelt
p2362
(dp2363
g4
I1
sg5
I0
ssVbiologische
p2364
(dp2365
g4
I0
sg5
I1
ssVnutzer
p2366
(dp2367
g4
I9
sg5
I0
ssVplastik
p2368
(dp2369
g4
I0
sg5
I1
ssVunterwirft
p2370
(dp2371
g4
I0
sg5
I1
ssVnnten
p2372
(dp2373
g4
I1
sg5
I3
ssVchecken
p2374
(dp2375
g4
I1
sg5
I0
ssVkriegs
p2376
(dp2377
g4
I1
sg5
I0
ssVvielseitigen
p2378
(dp2379
g4
I1
sg5
I0
ssVschlagen
p2380
(dp2381
g4
I2
sg5
I0
ssVzahlte
p2382
(dp2383
g4
I1
sg5
I0
ssVproduktfehlschl
p2384
(dp2385
g4
I1
sg5
I0
ssVndigung
p2386
(dp2387
g4
I1
sg5
I0
ssVnutzen
p2388
(dp2389
g4
I5
sg5
I0
ssVtragik
p2390
(dp2391
g4
I1
sg5
I0
ssVsste
p2392
(dp2393
g4
I1
sg5
I0
ssVfunktioniert
p2394
(dp2395
g4
I3
sg5
I0
ssVvorziehen
p2396
(dp2397
g4
I1
sg5
I0
ssVpomp
p2398
(dp2399
g4
I1
sg5
I0
ssVdrohe
p2400
(dp2401
g4
I0
sg5
I1
ssVnationaltrainer
p2402
(dp2403
g4
I0
sg5
I1
ssVautomatisch
p2404
(dp2405
g4
I2
sg5
I0
ssVfordert
p2406
(dp2407
g4
I0
sg5
I3
ssVschlecht
p2408
(dp2409
g4
I0
sg5
I1
ssVgrund
p2410
(dp2411
g4
I2
sg5
I1
ssVrechen
p2412
(dp2413
g4
I1
sg5
I0
ssVqual
p2414
(dp2415
g4
I0
sg5
I1
ssVfordern
p2416
(dp2417
g4
I0
sg5
I2
ssVdroht
p2418
(dp2419
g4
I0
sg5
I1
ssVerdgas
p2420
(dp2421
g4
I0
sg5
I1
ssVeiszeit
p2422
(dp2423
g4
I0
sg5
I1
ssVndung
p2424
(dp2425
g4
I1
sg5
I0
ssVfreunden
p2426
(dp2427
g4
I3
sg5
I0
ssVrze
p2428
(dp2429
g4
I3
sg5
I0
ssVbauen
p2430
(dp2431
g4
I1
sg5
I0
ssViranische
p2432
(dp2433
g4
I0
sg5
I1
ssVmotorrad
p2434
(dp2435
g4
I1
sg5
I0
ssVladetechnik
p2436
(dp2437
g4
I1
sg5
I0
ssVsechs
p2438
(dp2439
g4
I3
sg5
I1
ssVcomputer
p2440
(dp2441
g4
I6
sg5
I0
ssVgrande
p2442
(dp2443
g4
I0
sg5
I1
ssVapples
p2444
(dp2445
g4
I2
sg5
I0
ssVstammen
p2446
(dp2447
g4
I2
sg5
I1
ssVeingrenzen
p2448
(dp2449
g4
I0
sg5
I1
ssVabstand
p2450
(dp2451
g4
I1
sg5
I0
ssVbestehen
p2452
(dp2453
g4
I1
sg5
I0
ssVbooten
p2454
(dp2455
g4
I1
sg5
I0
ssVlich
p2456
(dp2457
g4
I1
sg5
I0
ssVangek
p2458
(dp2459
g4
I2
sg5
I0
ssVvertrauen
p2460
(dp2461
g4
I0
sg5
I2
ssValles
p2462
(dp2463
g4
I2
sg5
I1
ssValler
p2464
(dp2465
g4
I2
sg5
I0
ssVanl
p2466
(dp2467
g4
I1
sg5
I0
ssVentscheidenden
p2468
(dp2469
g4
I1
sg5
I0
ssVpro
p2470
(dp2471
g4
I2
sg5
I0
ssVreferenzdesign
p2472
(dp2473
g4
I1
sg5
I0
ssVschattendasein
p2474
(dp2475
g4
I1
sg5
I0
ssVank
p2476
(dp2477
g4
I2
sg5
I0
ssVenergiewende
p2478
(dp2479
g4
I0
sg5
I1
ssVnatursch
p2480
(dp2481
g4
I0
sg5
I1
ssVanw
p2482
(dp2483
g4
I1
sg5
I0
ssVspendet
p2484
(dp2485
g4
I1
sg5
I0
ssVschetrockner
p2486
(dp2487
g4
I1
sg5
I0
ssVdiesmal
p2488
(dp2489
g4
I1
sg5
I0
ssVallen
p2490
(dp2491
g4
I2
sg5
I1
ssVallem
p2492
(dp2493
g4
I2
sg5
I0
ssVnazi
p2494
(dp2495
g4
I0
sg5
I2
ssVspezial
p2496
(dp2497
g4
I1
sg5
I0
ssVabgleichproblemen
p2498
(dp2499
g4
I1
sg5
I0
ssVantworten
p2500
(dp2501
g4
I1
sg5
I0
ssVfpga
p2502
(dp2503
g4
I1
sg5
I0
ssVjahr
p2504
(dp2505
g4
I5
sg5
I1
ssVwiederbeleben
p2506
(dp2507
g4
I1
sg5
I0
ssVhinweise
p2508
(dp2509
g4
I1
sg5
I0
ssVfertig
p2510
(dp2511
g4
I1
sg5
I0
ssVnote
p2512
(dp2513
g4
I1
sg5
I0
ssVentschieden
p2514
(dp2515
g4
I0
sg5
I1
ssVelf
p2516
(dp2517
g4
I0
sg5
I1
ssVonline
p2518
(dp2519
g4
I7
sg5
I1
ssVperformance
p2520
(dp2521
g4
I1
sg5
I0
ssVzumindest
p2522
(dp2523
g4
I1
sg5
I0
ssVproduzieren
p2524
(dp2525
g4
I0
sg5
I1
ssVplattform
p2526
(dp2527
g4
I2
sg5
I0
ssVwaffenbauer
p2528
(dp2529
g4
I0
sg5
I1
ssVsurf
p2530
(dp2531
g4
I2
sg5
I0
ssVbetr
p2532
(dp2533
g4
I2
sg5
I0
ssVitalien
p2534
(dp2535
g4
I0
sg5
I3
ssVglasfasernetze
p2536
(dp2537
g4
I1
sg5
I0
ssVverhindert
p2538
(dp2539
g4
I0
sg5
I1
ssVbreko
p2540
(dp2541
g4
I1
sg5
I0
ssVmachte
p2542
(dp2543
g4
I0
sg5
I2
ssVsehr
p2544
(dp2545
g4
I2
sg5
I1
ssVtekameras
p2546
(dp2547
g4
I0
sg5
I1
ssVverhilft
p2548
(dp2549
g4
I0
sg5
I1
ssVinka
p2550
(dp2551
g4
I0
sg5
I1
ssVpfeiltasten
p2552
(dp2553
g4
I1
sg5
I0
ssVlehnt
p2554
(dp2555
g4
I0
sg5
I3
ssVgemeinsame
p2556
(dp2557
g4
I1
sg5
I0
ssVfitnessfunktionen
p2558
(dp2559
g4
I1
sg5
I0
ssVangst
p2560
(dp2561
g4
I0
sg5
I1
ssVsale
p2562
(dp2563
g4
I3
sg5
I0
ssVungeschlagen
p2564
(dp2565
g4
I0
sg5
I1
ssVckeroberungen
p2566
(dp2567
g4
I0
sg5
I1
ssVmobilfunks
p2568
(dp2569
g4
I1
sg5
I0
ssVfahrzeug
p2570
(dp2571
g4
I1
sg5
I0
ssVrunde
p2572
(dp2573
g4
I1
sg5
I1
ssVerz
p2574
(dp2575
g4
I0
sg5
I1
ssVmbel
p2576
(dp2577
g4
I0
sg5
I1
ssVeuropafeinde
p2578
(dp2579
g4
I0
sg5
I1
ssVlernen
p2580
(dp2581
g4
I1
sg5
I0
ssVshop
p2582
(dp2583
g4
I1
sg5
I0
ssVwalking
p2584
(dp2585
g4
I1
sg5
I0
ssVhaushalte
p2586
(dp2587
g4
I0
sg5
I1
ssVrabatte
p2588
(dp2589
g4
I3
sg5
I0
ssVshow
p2590
(dp2591
g4
I1
sg5
I0
ssVwindenergie
p2592
(dp2593
g4
I1
sg5
I0
ssVverliert
p2594
(dp2595
g4
I0
sg5
I1
ssVherbst
p2596
(dp2597
g4
I4
sg5
I0
ssVchtigten
p2598
(dp2599
g4
I1
sg5
I0
ssVsechzigerjahren
p2600
(dp2601
g4
I0
sg5
I1
ssVnetze
p2602
(dp2603
g4
I1
sg5
I0
ssVbereits
p2604
(dp2605
g4
I6
sg5
I2
ssVweitere
p2606
(dp2607
g4
I3
sg5
I3
ssVsetzt
p2608
(dp2609
g4
I3
sg5
I0
ssVslot
p2610
(dp2611
g4
I1
sg5
I0
ssVbetrachten
p2612
(dp2613
g4
I1
sg5
I0
ssVbern
p2614
(dp2615
g4
I0
sg5
I1
ssVzahl
p2616
(dp2617
g4
I0
sg5
I1
ssVerleichtert
p2618
(dp2619
g4
I0
sg5
I1
ssVvorrunde
p2620
(dp2621
g4
I2
sg5
I0
ssVrkere
p2622
(dp2623
g4
I1
sg5
I0
ssVmedienbericht
p2624
(dp2625
g4
I1
sg5
I1
ssVgeschriebene
p2626
(dp2627
g4
I1
sg5
I0
ssVblack
p2628
(dp2629
g4
I0
sg5
I1
ssVbeheben
p2630
(dp2631
g4
I1
sg5
I0
ssVdkorea
p2632
(dp2633
g4
I1
sg5
I0
ssVhandyhersteller
p2634
(dp2635
g4
I1
sg5
I0
ssVeinzug
p2636
(dp2637
g4
I0
sg5
I1
ssVger
p2638
(dp2639
g4
I16
sg5
I3
ssVbillionen
p2640
(dp2641
g4
I0
sg5
I1
ssVgep
p2642
(dp2643
g4
I1
sg5
I0
ssVgew
p2644
(dp2645
g4
I1
sg5
I0
ssVkreuzberg
p2646
(dp2647
g4
I0
sg5
I1
ssVgruppenphase
p2648
(dp2649
g4
I1
sg5
I0
ssVsst
p2650
(dp2651
g4
I6
sg5
I3
ssVmerkel
p2652
(dp2653
g4
I0
sg5
I5
ssVmission
p2654
(dp2655
g4
I0
sg5
I1
ssVgeb
p2656
(dp2657
g4
I1
sg5
I0
ssVgef
p2658
(dp2659
g4
I1
sg5
I4
ssVcameron
p2660
(dp2661
g4
I0
sg5
I1
ssVdasselbe
p2662
(dp2663
g4
I0
sg5
I1
ssVsse
p2664
(dp2665
g4
I0
sg5
I1
ssVwasser
p2666
(dp2667
g4
I1
sg5
I0
ssVgei
p2668
(dp2669
g4
I0
sg5
I1
ssVgeh
p2670
(dp2671
g4
I4
sg5
I1
ssVjeher
p2672
(dp2673
g4
I1
sg5
I0
ssVstoppt
p2674
(dp2675
g4
I0
sg5
I1
ssVklimaziele
p2676
(dp2677
g4
I0
sg5
I1
ssVbombe
p2678
(dp2679
g4
I0
sg5
I1
ssVoffensichtlich
p2680
(dp2681
g4
I1
sg5
I0
ssVlautst
p2682
(dp2683
g4
I1
sg5
I0
ssVsoziales
p2684
(dp2685
g4
I0
sg5
I1
ssVsozialer
p2686
(dp2687
g4
I0
sg5
I1
ssVsollten
p2688
(dp2689
g4
I1
sg5
I1
ssVberatern
p2690
(dp2691
g4
I0
sg5
I1
ssVxeon
p2692
(dp2693
g4
I1
sg5
I0
ssVzwangsarbeiter
p2694
(dp2695
g4
I0
sg5
I1
ssVstartseite
p2696
(dp2697
g4
I1
sg5
I0
ssVweit
p2698
(dp2699
g4
I0
sg5
I2
ssVgesundheit
p2700
(dp2701
g4
I1
sg5
I0
ssVvision
p2702
(dp2703
g4
I1
sg5
I0
ssVhelene
p2704
(dp2705
g4
I0
sg5
I1
ssVsatte
p2706
(dp2707
g4
I1
sg5
I0
ssVbernehmen
p2708
(dp2709
g4
I1
sg5
I0
ssVkernen
p2710
(dp2711
g4
I1
sg5
I0
ssVweltweiten
p2712
(dp2713
g4
I0
sg5
I1
ssVabgest
p2714
(dp2715
g4
I1
sg5
I0
ssVakademiker
p2716
(dp2717
g4
I0
sg5
I1
ssVleichte
p2718
(dp2719
g4
I1
sg5
I0
ssVsport
p2720
(dp2721
g4
I1
sg5
I0
ssVliebsten
p2722
(dp2723
g4
I0
sg5
I1
ssVvoranbringen
p2724
(dp2725
g4
I0
sg5
I1
ssVkerner
p2726
(dp2727
g4
I1
sg5
I0
ssVspitzenwerte
p2728
(dp2729
g4
I1
sg5
I0
ssVzukunft
p2730
(dp2731
g4
I1
sg5
I0
ssVzoll
p2732
(dp2733
g4
I6
sg5
I0
ssVabgeben
p2734
(dp2735
g4
I0
sg5
I1
ssVnnte
p2736
(dp2737
g4
I4
sg5
I3
ssVunterst
p2738
(dp2739
g4
I1
sg5
I2
ssVgemacht
p2740
(dp2741
g4
I0
sg5
I1
ssVkilometer
p2742
(dp2743
g4
I0
sg5
I1
ssVwechsel
p2744
(dp2745
g4
I1
sg5
I0
ssVbeinkleid
p2746
(dp2747
g4
I1
sg5
I0
ssVkreativer
p2748
(dp2749
g4
I1
sg5
I0
ssVhrungsempfindliche
p2750
(dp2751
g4
I1
sg5
I0
ssVvollformatkamera
p2752
(dp2753
g4
I1
sg5
I0
ssVvermieterin
p2754
(dp2755
g4
I0
sg5
I2
ssVwahlbeteiligung
p2756
(dp2757
g4
I0
sg5
I1
ssVplaner
p2758
(dp2759
g4
I0
sg5
I1
ssVmoment
p2760
(dp2761
g4
I1
sg5
I0
ssVslingshot
p2762
(dp2763
g4
I2
sg5
I0
ssVtut
p2764
(dp2765
g4
I1
sg5
I0
ssVsungen
p2766
(dp2767
g4
I1
sg5
I0
ssVklagt
p2768
(dp2769
g4
I1
sg5
I1
ssVfernsehmagazin
p2770
(dp2771
g4
I1
sg5
I0
ssVangenommen
p2772
(dp2773
g4
I0
sg5
I2
ssVvorschauversion
p2774
(dp2775
g4
I1
sg5
I0
ssVsparf
p2776
(dp2777
g4
I1
sg5
I0
ssVffentlichung
p2778
(dp2779
g4
I1
sg5
I0
ssVsumme
p2780
(dp2781
g4
I1
sg5
I0
ssVabgeordnete
p2782
(dp2783
g4
I0
sg5
I1
ssVsuperstar
p2784
(dp2785
g4
I0
sg5
I1
ssVdarin
p2786
(dp2787
g4
I1
sg5
I1
ssVstimme
p2788
(dp2789
g4
I1
sg5
I1
ssVgriechenland
p2790
(dp2791
g4
I0
sg5
I1
ssVbundesebene
p2792
(dp2793
g4
I0
sg5
I1
ssVchtlich
p2794
(dp2795
g4
I1
sg5
I0
ssVanwerbeflop
p2796
(dp2797
g4
I0
sg5
I1
ssVpflegealltag
p2798
(dp2799
g4
I0
sg5
I1
ssVschnell
p2800
(dp2801
g4
I2
sg5
I1
ssVwusste
p2802
(dp2803
g4
I0
sg5
I1
ssVnderte
p2804
(dp2805
g4
I1
sg5
I0
ssVhauptstadt
p2806
(dp2807
g4
I0
sg5
I1
ssVjesselyn
p2808
(dp2809
g4
I1
sg5
I0
ssVvertrauensvotum
p2810
(dp2811
g4
I0
sg5
I1
ssVmann
p2812
(dp2813
g4
I1
sg5
I1
ssVdaten
p2814
(dp2815
g4
I4
sg5
I1
ssVfotodienst
p2816
(dp2817
g4
I1
sg5
I0
ssVsauvage
p2818
(dp2819
g4
I1
sg5
I0
ssVbaden
p2820
(dp2821
g4
I0
sg5
I2
ssVrunden
p2822
(dp2823
g4
I3
sg5
I0
ssVteklassen
p2824
(dp2825
g4
I1
sg5
I0
ssVschienennahverkehr
p2826
(dp2827
g4
I0
sg5
I1
ssVantr
p2828
(dp2829
g4
I1
sg5
I0
ssVrundet
p2830
(dp2831
g4
I1
sg5
I0
ssVanti
p2832
(dp2833
g4
I1
sg5
I0
ssVprofi
p2834
(dp2835
g4
I1
sg5
I0
ssVckkehren
p2836
(dp2837
g4
I1
sg5
I0
ssVausziehen
p2838
(dp2839
g4
I0
sg5
I2
ssVamerikaner
p2840
(dp2841
g4
I0
sg5
I1
ssVoder
p2842
(dp2843
g4
I9
sg5
I4
ssVsunniten
p2844
(dp2845
g4
I0
sg5
I1
ssVvorlage
p2846
(dp2847
g4
I1
sg5
I0
ssVtesla
p2848
(dp2849
g4
I1
sg5
I0
ssVaufgrund
p2850
(dp2851
g4
I1
sg5
I0
ssVarte
p2852
(dp2853
g4
I0
sg5
I1
ssVtrassen
p2854
(dp2855
g4
I0
sg5
I1
ssVneustart
p2856
(dp2857
g4
I0
sg5
I1
ssVindustrie
p2858
(dp2859
g4
I1
sg5
I0
ssVklage
p2860
(dp2861
g4
I0
sg5
I3
ssVabmahnung
p2862
(dp2863
g4
I1
sg5
I0
ssVfortschrittlich
p2864
(dp2865
g4
I1
sg5
I0
ssVviele
p2866
(dp2867
g4
I1
sg5
I2
ssVbereitstellen
p2868
(dp2869
g4
I1
sg5
I0
ssVskandals
p2870
(dp2871
g4
I0
sg5
I1
ssVbersee
p2872
(dp2873
g4
I0
sg5
I1
ssVbezahlt
p2874
(dp2875
g4
I1
sg5
I0
ssVtigen
p2876
(dp2877
g4
I2
sg5
I0
ssVischen
p2878
(dp2879
g4
I0
sg5
I2
ssVdiscountern
p2880
(dp2881
g4
I1
sg5
I0
ssVnikon
p2882
(dp2883
g4
I3
sg5
I0
ssVtayyip
p2884
(dp2885
g4
I0
sg5
I1
ssVminister
p2886
(dp2887
g4
I0
sg5
I2
ssVpeanuts
p2888
(dp2889
g4
I0
sg5
I1
ssVirrelevant
p2890
(dp2891
g4
I0
sg5
I1
ssVhierzulande
p2892
(dp2893
g4
I1
sg5
I0
ssVlandtagswahlen
p2894
(dp2895
g4
I0
sg5
I1
ssVknallerangebot
p2896
(dp2897
g4
I1
sg5
I0
ssVeis
p2898
(dp2899
g4
I0
sg5
I1
ssVschmidt
p2900
(dp2901
g4
I0
sg5
I1
ssVnorbert
p2902
(dp2903
g4
I0
sg5
I1
ssVgeht
p2904
(dp2905
g4
I8
sg5
I3
ssVurspr
p2906
(dp2907
g4
I0
sg5
I1
ssVhintergrund
p2908
(dp2909
g4
I1
sg5
I0
ssVsituation
p2910
(dp2911
g4
I0
sg5
I1
ssVvernetzte
p2912
(dp2913
g4
I2
sg5
I0
ssVglaubt
p2914
(dp2915
g4
I1
sg5
I1
ssVspaniens
p2916
(dp2917
g4
I0
sg5
I1
ssVein
p2918
(dp2919
g4
I35
sg5
I18
ssVive
p2920
(dp2921
g4
I1
sg5
I0
ssVkostenlos
p2922
(dp2923
g4
I1
sg5
I0
ssVcanon
p2924
(dp2925
g4
I1
sg5
I0
ssVmiddle
p2926
(dp2927
g4
I1
sg5
I0
ssVrzburg
p2928
(dp2929
g4
I0
sg5
I1
ssVmiliz
p2930
(dp2931
g4
I0
sg5
I1
ssVsichern
p2932
(dp2933
g4
I2
sg5
I0
ssViwatch
p2934
(dp2935
g4
I1
sg5
I0
ssVumwandeln
p2936
(dp2937
g4
I1
sg5
I1
ssVjanuar
p2938
(dp2939
g4
I1
sg5
I0
ssVfame
p2940
(dp2941
g4
I1
sg5
I0
ssVverpassen
p2942
(dp2943
g4
I1
sg5
I0
ssVniedrigeren
p2944
(dp2945
g4
I1
sg5
I0
ssVargumente
p2946
(dp2947
g4
I0
sg5
I1
ssVknutt
p2948
(dp2949
g4
I0
sg5
I1
ssVentstanden
p2950
(dp2951
g4
I1
sg5
I0
ssVindividuell
p2952
(dp2953
g4
I1
sg5
I0
ssVallgegenw
p2954
(dp2955
g4
I1
sg5
I1
ssVriege
p2956
(dp2957
g4
I1
sg5
I0
ssVpad
p2958
(dp2959
g4
I1
sg5
I0
ssVheimatland
p2960
(dp2961
g4
I1
sg5
I0
ssVballabeni
p2962
(dp2963
g4
I0
sg5
I1
ssVevents
p2964
(dp2965
g4
I1
sg5
I0
ssVschwedischen
p2966
(dp2967
g4
I1
sg5
I0
ssVsnappytv
p2968
(dp2969
g4
I1
sg5
I0
ssVstatus
p2970
(dp2971
g4
I1
sg5
I0
ssVvizechef
p2972
(dp2973
g4
I0
sg5
I1
ssVputin
p2974
(dp2975
g4
I0
sg5
I2
ssVsteuers
p2976
(dp2977
g4
I0
sg5
I1
ssVbitteren
p2978
(dp2979
g4
I1
sg5
I0
ssVdownloads
p2980
(dp2981
g4
I1
sg5
I0
ssVverzichten
p2982
(dp2983
g4
I1
sg5
I0
ssVdabei
p2984
(dp2985
g4
I9
sg5
I5
ssVabmahnwellen
p2986
(dp2987
g4
I1
sg5
I0
ssVgreift
p2988
(dp2989
g4
I1
sg5
I1
ssVinformierte
p2990
(dp2991
g4
I1
sg5
I0
ssVstimmt
p2992
(dp2993
g4
I0
sg5
I1
ssVlehrer
p2994
(dp2995
g4
I0
sg5
I1
ssVcosta
p2996
(dp2997
g4
I0
sg5
I1
ssVgestorben
p2998
(dp2999
g4
I0
sg5
I1
ssVberichtet
p3000
(dp3001
g4
I1
sg5
I1
ssVneuorganisaiton
p3002
(dp3003
g4
I1
sg5
I0
ssVvereinbarten
p3004
(dp3005
g4
I0
sg5
I1
ssVstreit
p3006
(dp3007
g4
I0
sg5
I3
ssVausstellen
p3008
(dp3009
g4
I0
sg5
I1
ssVrden
p3010
(dp3011
g4
I1
sg5
I0
ssVmachen
p3012
(dp3013
g4
I5
sg5
I3
ssVischer
p3014
(dp3015
g4
I1
sg5
I0
ssVpolizeiauto
p3016
(dp3017
g4
I0
sg5
I1
ssVwege
p3018
(dp3019
g4
I0
sg5
I1
ssVfamilientreffen
p3020
(dp3021
g4
I0
sg5
I1
ssVmodem
p3022
(dp3023
g4
I1
sg5
I0
ssVdokumente
p3024
(dp3025
g4
I1
sg5
I0
ssVberichten
p3026
(dp3027
g4
I4
sg5
I1
ssVkampagne
p3028
(dp3029
g4
I2
sg5
I0
ssVsummer
p3030
(dp3031
g4
I2
sg5
I0
ssVaufzeichnungen
p3032
(dp3033
g4
I0
sg5
I1
ssVnachdem
p3034
(dp3035
g4
I2
sg5
I0
ssVgereicht
p3036
(dp3037
g4
I0
sg5
I1
ssVbieten
p3038
(dp3039
g4
I2
sg5
I0
ssVbeachten
p3040
(dp3041
g4
I1
sg5
I0
ssVwollte
p3042
(dp3043
g4
I0
sg5
I1
ssVvielversprechende
p3044
(dp3045
g4
I1
sg5
I0
ssVaussehen
p3046
(dp3047
g4
I1
sg5
I0
ssVschminkstifte
p3048
(dp3049
g4
I0
sg5
I1
ssVlibyen
p3050
(dp3051
g4
I0
sg5
I1
ssVgreasemonkey
p3052
(dp3053
g4
I1
sg5
I0
ssVreduzierten
p3054
(dp3055
g4
I2
sg5
I0
ssVverst
p3056
(dp3057
g4
I1
sg5
I0
ssVdruck
p3058
(dp3059
g4
I1
sg5
I5
ssVeinfallen
p3060
(dp3061
g4
I1
sg5
I0
ssVmehreren
p3062
(dp3063
g4
I1
sg5
I0
ssVpionier
p3064
(dp3065
g4
I1
sg5
I0
ssVfotografen
p3066
(dp3067
g4
I1
sg5
I0
ssVblog
p3068
(dp3069
g4
I3
sg5
I4
ssVsupercomputern
p3070
(dp3071
g4
I2
sg5
I0
ssVreinfall
p3072
(dp3073
g4
I1
sg5
I0
ssVadolfs
p3074
(dp3075
g4
I0
sg5
I2
ssVvorstellungsrunde
p3076
(dp3077
g4
I0
sg5
I1
ssVrkische
p3078
(dp3079
g4
I0
sg5
I1
ssVnat
p3080
(dp3081
g4
I1
sg5
I0
ssVgering
p3082
(dp3083
g4
I1
sg5
I0
ssVstung
p3084
(dp3085
g4
I0
sg5
I1
ssVvorangeprescht
p3086
(dp3087
g4
I0
sg5
I1
ssVneuen
p3088
(dp3089
g4
I10
sg5
I3
ssVamd
p3090
(dp3091
g4
I1
sg5
I0
ssVneuem
p3092
(dp3093
g4
I2
sg5
I0
ssVneuer
p3094
(dp3095
g4
I4
sg5
I1
ssVneues
p3096
(dp3097
g4
I7
sg5
I2
ssVtraffic
p3098
(dp3099
g4
I1
sg5
I0
ssVgeschlossen
p3100
(dp3101
g4
I1
sg5
I0
ssVgeknackt
p3102
(dp3103
g4
I1
sg5
I0
ssVworld
p3104
(dp3105
g4
I1
sg5
I0
ssVdarf
p3106
(dp3107
g4
I0
sg5
I1
ssVrear
p3108
(dp3109
g4
I1
sg5
I0
ssVkommentar
p3110
(dp3111
g4
I1
sg5
I0
ssVvorschlag
p3112
(dp3113
g4
I0
sg5
I1
ssVentscheidungen
p3114
(dp3115
g4
I1
sg5
I0
ssVintel
p3116
(dp3117
g4
I3
sg5
I0
ssVforderung
p3118
(dp3119
g4
I0
sg5
I1
ssVserver
p3120
(dp3121
g4
I3
sg5
I0
ssVunbenutzt
p3122
(dp3123
g4
I1
sg5
I0
ssVblackberry
p3124
(dp3125
g4
I1
sg5
I0
ssVharam
p3126
(dp3127
g4
I0
sg5
I1
ssVtower
p3128
(dp3129
g4
I1
sg5
I0
ssVpflege
p3130
(dp3131
g4
I0
sg5
I1
ssVkennen
p3132
(dp3133
g4
I1
sg5
I0
ssVdilbert
p3134
(dp3135
g4
I0
sg5
I1
ssVtitan
p3136
(dp3137
g4
I1
sg5
I0
ssVsollen
p3138
(dp3139
g4
I5
sg5
I3
ssVhacks
p3140
(dp3141
g4
I1
sg5
I0
ssVarbeitsgericht
p3142
(dp3143
g4
I0
sg5
I1
ssVsteuereinnahmen
p3144
(dp3145
g4
I0
sg5
I1
ssVxeons
p3146
(dp3147
g4
I2
sg5
I0
ssVverschl
p3148
(dp3149
g4
I2
sg5
I0
ssVwohnzimmer
p3150
(dp3151
g4
I1
sg5
I0
ssVbesser
p3152
(dp3153
g4
I2
sg5
I1
ssVfreiheit
p3154
(dp3155
g4
I1
sg5
I0
ssVausr
p3156
(dp3157
g4
I0
sg5
I1
ssVzugriff
p3158
(dp3159
g4
I1
sg5
I0
ssVddr
p3160
(dp3161
g4
I0
sg5
I1
ssVpersonalie
p3162
(dp3163
g4
I0
sg5
I1
ssVgewonnen
p3164
(dp3165
g4
I1
sg5
I3
ssVidentisch
p3166
(dp3167
g4
I1
sg5
I0
ssVnationalmannschaft
p3168
(dp3169
g4
I0
sg5
I2
ssVfteln
p3170
(dp3171
g4
I1
sg5
I0
ssVpioneer
p3172
(dp3173
g4
I1
sg5
I0
ssVkunden
p3174
(dp3175
g4
I4
sg5
I0
ssVprovider
p3176
(dp3177
g4
I2
sg5
I0
ssVzuvor
p3178
(dp3179
g4
I1
sg5
I0
ssVgoogles
p3180
(dp3181
g4
I3
sg5
I0
ssVffentlicher
p3182
(dp3183
g4
I0
sg5
I1
ssVministerium
p3184
(dp3185
g4
I0
sg5
I1
ssVbusiness
p3186
(dp3187
g4
I1
sg5
I0
ssVraus
p3188
(dp3189
g4
I0
sg5
I1
ssVpreissturz
p3190
(dp3191
g4
I2
sg5
I0
ssVchefs
p3192
(dp3193
g4
I0
sg5
I1
ssVseine
p3194
(dp3195
g4
I6
sg5
I9
ssVpaare
p3196
(dp3197
g4
I1
sg5
I0
ssViconia
p3198
(dp3199
g4
I1
sg5
I0
ssVschie
p3200
(dp3201
g4
I0
sg5
I1
ssVgleichzeitig
p3202
(dp3203
g4
I1
sg5
I0
ssVfragen
p3204
(dp3205
g4
I0
sg5
I3
ssVngern
p3206
(dp3207
g4
I0
sg5
I1
ssVhabe
p3208
(dp3209
g4
I2
sg5
I0
ssVpaart
p3210
(dp3211
g4
I1
sg5
I0
ssVwurden
p3212
(dp3213
g4
I2
sg5
I1
ssVune
p3214
(dp3215
g4
I0
sg5
I1
ssVorigins
p3216
(dp3217
g4
I1
sg5
I0
ssVpanne
p3218
(dp3219
g4
I1
sg5
I0
ssVacm
p3220
(dp3221
g4
I1
sg5
I0
ssVerneut
p3222
(dp3223
g4
I2
sg5
I1
ssVanfrage
p3224
(dp3225
g4
I1
sg5
I0
ssVstand
p3226
(dp3227
g4
I2
sg5
I1
ssVkanzlerin
p3228
(dp3229
g4
I0
sg5
I2
ssVhessen
p3230
(dp3231
g4
I0
sg5
I2
ssVengagiert
p3232
(dp3233
g4
I1
sg5
I0
ssVlobt
p3234
(dp3235
g4
I0
sg5
I1
ssVtoren
p3236
(dp3237
g4
I0
sg5
I1
ssVpartien
p3238
(dp3239
g4
I1
sg5
I0
ssVmikrofon
p3240
(dp3241
g4
I1
sg5
I0
ssVsnapchat
p3242
(dp3243
g4
I2
sg5
I0
ssVproteste
p3244
(dp3245
g4
I1
sg5
I0
ssVbundesrichter
p3246
(dp3247
g4
I0
sg5
I1
ssVuntersuchten
p3248
(dp3249
g4
I1
sg5
I0
ssVchtiger
p3250
(dp3251
g4
I0
sg5
I1
ssVmark
p3252
(dp3253
g4
I1
sg5
I0
ssVbitte
p3254
(dp3255
g4
I1
sg5
I0
ssVbelastend
p3256
(dp3257
g4
I0
sg5
I1
ssVvirenscanner
p3258
(dp3259
g4
I1
sg5
I0
ssVsorgte
p3260
(dp3261
g4
I0
sg5
I1
ssVwelches
p3262
(dp3263
g4
I1
sg5
I0
ssVneuerungen
p3264
(dp3265
g4
I2
sg5
I0
ssVpubertierenden
p3266
(dp3267
g4
I0
sg5
I1
ssVher
p3268
(dp3269
g4
I1
sg5
I1
ssVstark
p3270
(dp3271
g4
I2
sg5
I0
ssVlos
p3272
(dp3273
g4
I1
sg5
I0
ssVbeleidigt
p3274
(dp3275
g4
I0
sg5
I1
ssVhei
p3276
(dp3277
g4
I4
sg5
I1
ssVwelchen
p3278
(dp3279
g4
I1
sg5
I0
ssVrechnet
p3280
(dp3281
g4
I0
sg5
I1
ssVmedia
p3282
(dp3283
g4
I2
sg5
I0
ssVverschnupft
p3284
(dp3285
g4
I0
sg5
I1
ssVrechner
p3286
(dp3287
g4
I1
sg5
I0
ssVscharf
p3288
(dp3289
g4
I0
sg5
I3
ssVbesucht
p3290
(dp3291
g4
I0
sg5
I1
ssVglobalisierung
p3292
(dp3293
g4
I0
sg5
I1
ssVgibt
p3294
(dp3295
g4
I10
sg5
I3
ssVtrainerin
p3296
(dp3297
g4
I0
sg5
I1
ssVabnehmbare
p3298
(dp3299
g4
I1
sg5
I0
ssVchristdemokraten
p3300
(dp3301
g4
I0
sg5
I1
ssVzuerst
p3302
(dp3303
g4
I1
sg5
I0
ssVrechnen
p3304
(dp3305
g4
I0
sg5
I1
ssVvergab
p3306
(dp3307
g4
I0
sg5
I1
ssVunerprobte
p3308
(dp3309
g4
I0
sg5
I1
ssVillustrator
p3310
(dp3311
g4
I1
sg5
I0
ssVaufnahmen
p3312
(dp3313
g4
I0
sg5
I1
ssVmahnen
p3314
(dp3315
g4
I1
sg5
I0
ssVfeuer
p3316
(dp3317
g4
I1
sg5
I0
ssVwutb
p3318
(dp3319
g4
I0
sg5
I2
ssVkoalitionskrach
p3320
(dp3321
g4
I0
sg5
I1
ssVentwicklerprogramm
p3322
(dp3323
g4
I1
sg5
I0
ssVklinsmanns
p3324
(dp3325
g4
I0
sg5
I1
ssVklassenfahrt
p3326
(dp3327
g4
I0
sg5
I1
ssVarbeitsplatzabbau
p3328
(dp3329
g4
I0
sg5
I1
ssVprodukt
p3330
(dp3331
g4
I1
sg5
I0
ssVberuflicher
p3332
(dp3333
g4
I1
sg5
I0
ssVengine
p3334
(dp3335
g4
I1
sg5
I0
ssVkennzeichnung
p3336
(dp3337
g4
I1
sg5
I0
ssVkeine
p3338
(dp3339
g4
I3
sg5
I3
ssVvideos
p3340
(dp3341
g4
I1
sg5
I0
ssVerinnern
p3342
(dp3343
g4
I0
sg5
I1
ssVgehen
p3344
(dp3345
g4
I0
sg5
I1
ssVformuliert
p3346
(dp3347
g4
I0
sg5
I1
ssVvorw
p3348
(dp3349
g4
I1
sg5
I0
ssVereignisse
p3350
(dp3351
g4
I1
sg5
I0
ssVkommenden
p3352
(dp3353
g4
I1
sg5
I0
ssVleaker
p3354
(dp3355
g4
I1
sg5
I0
ssVlinken
p3356
(dp3357
g4
I0
sg5
I1
ssVacer
p3358
(dp3359
g4
I1
sg5
I0
ssVdigitalkameras
p3360
(dp3361
g4
I1
sg5
I0
ssVvorg
p3362
(dp3363
g4
I1
sg5
I0
ssVfilm
p3364
(dp3365
g4
I0
sg5
I1
ssVvertrauensabstimmung
p3366
(dp3367
g4
I0
sg5
I1
ssVerfolgreich
p3368
(dp3369
g4
I2
sg5
I0
ssVverizon
p3370
(dp3371
g4
I2
sg5
I0
ssVholen
p3372
(dp3373
g4
I1
sg5
I0
ssVrichtung
p3374
(dp3375
g4
I2
sg5
I0
ssVwesentlichen
p3376
(dp3377
g4
I1
sg5
I0
ssVworauf
p3378
(dp3379
g4
I0
sg5
I1
ssVfungstermin
p3380
(dp3381
g4
I1
sg5
I0
ssVsorgt
p3382
(dp3383
g4
I1
sg5
I0
ssVsendungsbewusstsein
p3384
(dp3385
g4
I0
sg5
I1
ssVeigentlich
p3386
(dp3387
g4
I2
sg5
I0
ssVertr
p3388
(dp3389
g4
I0
sg5
I1
ssVspielplan
p3390
(dp3391
g4
I0
sg5
I1
ssVdefekten
p3392
(dp3393
g4
I0
sg5
I1
ssVgames
p3394
(dp3395
g4
I4
sg5
I0
ssVanklage
p3396
(dp3397
g4
I0
sg5
I1
ssVexotische
p3398
(dp3399
g4
I0
sg5
I1
ssVetwas
p3400
(dp3401
g4
I1
sg5
I0
ssVfazit
p3402
(dp3403
g4
I5
sg5
I1
ssVwerkzeuge
p3404
(dp3405
g4
I1
sg5
I0
ssVonkyo
p3406
(dp3407
g4
I1
sg5
I0
ssVhetze
p3408
(dp3409
g4
I0
sg5
I1
ssVgipfel
p3410
(dp3411
g4
I0
sg5
I2
ssVgeleast
p3412
(dp3413
g4
I1
sg5
I0
ssVleisten
p3414
(dp3415
g4
I1
sg5
I0
ssVarchitecture
p3416
(dp3417
g4
I1
sg5
I0
ssVderzeit
p3418
(dp3419
g4
I4
sg5
I0
ssVremote
p3420
(dp3421
g4
I1
sg5
I0
ssVtricks
p3422
(dp3423
g4
I1
sg5
I0
ssVsuchmaschinenriese
p3424
(dp3425
g4
I1
sg5
I0
ssVspanien
p3426
(dp3427
g4
I1
sg5
I0
ssVdarsteller
p3428
(dp3429
g4
I0
sg5
I1
ssVzunimmt
p3430
(dp3431
g4
I1
sg5
I0
ssVtsanker
p3432
(dp3433
g4
I0
sg5
I1
ssVcpu
p3434
(dp3435
g4
I2
sg5
I0
ssVweltkriegs
p3436
(dp3437
g4
I0
sg5
I1
ssVall
p3438
(dp3439
g4
I2
sg5
I0
ssVftlinge
p3440
(dp3441
g4
I0
sg5
I2
ssVsch
p3442
(dp3443
g4
I1
sg5
I3
ssVmessi
p3444
(dp3445
g4
I0
sg5
I1
ssVfachmesse
p3446
(dp3447
g4
I1
sg5
I0
ssVerfahren
p3448
(dp3449
g4
I0
sg5
I1
ssVftlings
p3450
(dp3451
g4
I0
sg5
I1
ssVbrowsers
p3452
(dp3453
g4
I1
sg5
I0
ssVhilferufen
p3454
(dp3455
g4
I0
sg5
I1
ssValt
p3456
(dp3457
g4
I1
sg5
I0
ssVsung
p3458
(dp3459
g4
I3
sg5
I1
ssVauslastung
p3460
(dp3461
g4
I1
sg5
I0
ssVfaktor
p3462
(dp3463
g4
I1
sg5
I0
ssVbauzeichner
p3464
(dp3465
g4
I0
sg5
I1
ssVempfindlich
p3466
(dp3467
g4
I1
sg5
I0
ssVflatrates
p3468
(dp3469
g4
I1
sg5
I0
ssVbermittelt
p3470
(dp3471
g4
I0
sg5
I2
ssVregistrierten
p3472
(dp3473
g4
I0
sg5
I1
ssVnord
p3474
(dp3475
g4
I2
sg5
I1
ssVsendeplan
p3476
(dp3477
g4
I3
sg5
I0
ssVvorurteile
p3478
(dp3479
g4
I1
sg5
I0
ssVwenige
p3480
(dp3481
g4
I1
sg5
I1
ssVsupercomputer
p3482
(dp3483
g4
I2
sg5
I0
ssVrichtig
p3484
(dp3485
g4
I1
sg5
I0
ssVchinesischer
p3486
(dp3487
g4
I0
sg5
I1
ssVleistungsschutzrecht
p3488
(dp3489
g4
I2
sg5
I0
ssVdschihadisten
p3490
(dp3491
g4
I0
sg5
I1
ssVverb
p3492
(dp3493
g4
I1
sg5
I0
ssVschade
p3494
(dp3495
g4
I1
sg5
I0
ssVverf
p3496
(dp3497
g4
I2
sg5
I0
ssVsony
p3498
(dp3499
g4
I3
sg5
I0
ssVverk
p3500
(dp3501
g4
I1
sg5
I1
ssVticker
p3502
(dp3503
g4
I3
sg5
I0
ssVverl
p3504
(dp3505
g4
I1
sg5
I1
ssVstrand
p3506
(dp3507
g4
I1
sg5
I0
ssVregierung
p3508
(dp3509
g4
I1
sg5
I5
ssVfertigung
p3510
(dp3511
g4
I1
sg5
I0
ssVworden
p3512
(dp3513
g4
I1
sg5
I0
ssVprogramms
p3514
(dp3515
g4
I1
sg5
I0
ssVentwicklerkonferenz
p3516
(dp3517
g4
I5
sg5
I0
ssVvize
p3518
(dp3519
g4
I0
sg5
I1
ssVgesellschaftskritik
p3520
(dp3521
g4
I0
sg5
I1
ssVniederlage
p3522
(dp3523
g4
I0
sg5
I1
ssVnetzwelt
p3524
(dp3525
g4
I9
sg5
I0
ssVlaut
p3526
(dp3527
g4
I2
sg5
I3
ssVprogramme
p3528
(dp3529
g4
I4
sg5
I0
ssVstrafrechtliche
p3530
(dp3531
g4
I0
sg5
I1
ssVarbeitsplatz
p3532
(dp3533
g4
I2
sg5
I0
ssVten
p3534
(dp3535
g4
I4
sg5
I0
ssVimmerhin
p3536
(dp3537
g4
I2
sg5
I0
ssVtruppen
p3538
(dp3539
g4
I0
sg5
I1
ssVaktuellen
p3540
(dp3541
g4
I2
sg5
I0
ssVeinstigen
p3542
(dp3543
g4
I0
sg5
I1
ssVdesign
p3544
(dp3545
g4
I5
sg5
I1
ssVdisplays
p3546
(dp3547
g4
I1
sg5
I0
ssVplugins
p3548
(dp3549
g4
I1
sg5
I0
ssVter
p3550
(dp3551
g4
I1
sg5
I1
ssVgerichte
p3552
(dp3553
g4
I1
sg5
I0
ssVohne
p3554
(dp3555
g4
I5
sg5
I3
ssVbilligeres
p3556
(dp3557
g4
I1
sg5
I0
ssVabf
p3558
(dp3559
g4
I1
sg5
I0
ssVpolens
p3560
(dp3561
g4
I0
sg5
I2
ssVsoldaten
p3562
(dp3563
g4
I0
sg5
I1
ssVgung
p3564
(dp3565
g4
I1
sg5
I0
ssVzweimal
p3566
(dp3567
g4
I1
sg5
I0
ssVoftmals
p3568
(dp3569
g4
I1
sg5
I0
ssVkreuzberger
p3570
(dp3571
g4
I0
sg5
I1
ssVtestsieger
p3572
(dp3573
g4
I2
sg5
I0
ssVrauchern
p3574
(dp3575
g4
I0
sg5
I1
ssVjurist
p3576
(dp3577
g4
I0
sg5
I1
ssVpublic
p3578
(dp3579
g4
I3
sg5
I0
ssVjede
p3580
(dp3581
g4
I2
sg5
I1
ssVirak
p3582
(dp3583
g4
I0
sg5
I4
ssVausbauen
p3584
(dp3585
g4
I0
sg5
I1
ssVtebrand
p3586
(dp3587
g4
I2
sg5
I0
ssViran
p3588
(dp3589
g4
I1
sg5
I2
ssVseiten
p3590
(dp3591
g4
I0
sg5
I1
ssVvermeldete
p3592
(dp3593
g4
I1
sg5
I0
ssVstaatsanwaltschaft
p3594
(dp3595
g4
I0
sg5
I2
ssVsurfen
p3596
(dp3597
g4
I3
sg5
I0
ssVver
p3598
(dp3599
g4
I7
sg5
I0
ssVabgeordneten
p3600
(dp3601
g4
I0
sg5
I1
ssVndigt
p3602
(dp3603
g4
I5
sg5
I0
ssVrskandal
p3604
(dp3605
g4
I0
sg5
I2
ssVstellt
p3606
(dp3607
g4
I7
sg5
I1
ssVjahre
p3608
(dp3609
g4
I2
sg5
I3
ssVfreenet
p3610
(dp3611
g4
I2
sg5
I0
ssVkriegsger
p3612
(dp3613
g4
I0
sg5
I1
ssVschwarz
p3614
(dp3615
g4
I0
sg5
I2
ssVkriegshetzer
p3616
(dp3617
g4
I0
sg5
I2
ssVbase
p3618
(dp3619
g4
I1
sg5
I0
ssVmonate
p3620
(dp3621
g4
I1
sg5
I0
ssVdurch
p3622
(dp3623
g4
I4
sg5
I3
ssVsocial
p3624
(dp3625
g4
I1
sg5
I0
ssVzutaten
p3626
(dp3627
g4
I0
sg5
I1
ssVvorwurf
p3628
(dp3629
g4
I0
sg5
I1
ssVrischer
p3630
(dp3631
g4
I0
sg5
I1
ssVaufl
p3632
(dp3633
g4
I2
sg5
I0
ssVbrauchen
p3634
(dp3635
g4
I0
sg5
I1
ssVsicherung
p3636
(dp3637
g4
I0
sg5
I1
ssVhrer
p3638
(dp3639
g4
I1
sg5
I1
ssVauff
p3640
(dp3641
g4
I1
sg5
I0
ssVstudie
p3642
(dp3643
g4
I0
sg5
I1
ssVrke
p3644
(dp3645
g4
I1
sg5
I0
ssVregiment
p3646
(dp3647
g4
I0
sg5
I1
ssVarbeiter
p3648
(dp3649
g4
I1
sg5
I0
ssVdeswegen
p3650
(dp3651
g4
I0
sg5
I1
ssVaktiver
p3652
(dp3653
g4
I0
sg5
I1
ssVvorsto
p3654
(dp3655
g4
I1
sg5
I1
ssVsentiert
p3656
(dp3657
g4
I3
sg5
I0
ssVhren
p3658
(dp3659
g4
I3
sg5
I0
ssVrdenangaben
p3660
(dp3661
g4
I0
sg5
I1
ssVgrunds
p3662
(dp3663
g4
I0
sg5
I1
ssVschnepfe
p3664
(dp3665
g4
I0
sg5
I1
ssVlanguages
p3666
(dp3667
g4
I1
sg5
I0
ssVpreissenkung
p3668
(dp3669
g4
I1
sg5
I0
ssVraff
p3670
(dp3671
g4
I0
sg5
I1
ssVhrung
p3672
(dp3673
g4
I0
sg5
I1
ssVstreiten
p3674
(dp3675
g4
I0
sg5
I1
ssVstungslobby
p3676
(dp3677
g4
I0
sg5
I1
ssVspannung
p3678
(dp3679
g4
I1
sg5
I0
ssVanfang
p3680
(dp3681
g4
I0
sg5
I1
ssVerheben
p3682
(dp3683
g4
I0
sg5
I1
ssVsondern
p3684
(dp3685
g4
I3
sg5
I2
ssVobjektiven
p3686
(dp3687
g4
I1
sg5
I0
ssVflat
p3688
(dp3689
g4
I1
sg5
I0
ssVvierte
p3690
(dp3691
g4
I1
sg5
I0
ssVwindenergieerzeugern
p3692
(dp3693
g4
I1
sg5
I0
ssVmozilla
p3694
(dp3695
g4
I3
sg5
I0
ssVtelefondaten
p3696
(dp3697
g4
I0
sg5
I2
ssVmedienberichten
p3698
(dp3699
g4
I0
sg5
I2
ssVschweiz
p3700
(dp3701
g4
I2
sg5
I4
ssVtesten
p3702
(dp3703
g4
I2
sg5
I0
ssVfitnesssensoren
p3704
(dp3705
g4
I1
sg5
I0
ssVzeichen
p3706
(dp3707
g4
I3
sg5
I0
ssVmediziner
p3708
(dp3709
g4
I0
sg5
I1
ssVkreativ
p3710
(dp3711
g4
I1
sg5
I0
ssVder
p3712
(dp3713
g4
I100
sg5
I69
ssVdes
p3714
(dp3715
g4
I21
sg5
I8
ssVstipendien
p3716
(dp3717
g4
I1
sg5
I0
ssVdem
p3718
(dp3719
g4
I40
sg5
I8
ssVden
p3720
(dp3721
g4
I53
sg5
I25
ssVzocker
p3722
(dp3723
g4
I1
sg5
I0
ssVdeb
p3724
(dp3725
g4
I1
sg5
I0
ssVtabelle
p3726
(dp3727
g4
I1
sg5
I0
ssVeingeleitet
p3728
(dp3729
g4
I1
sg5
I0
ssVchlich
p3730
(dp3731
g4
I5
sg5
I0
ssVwieder
p3732
(dp3733
g4
I10
sg5
I1
ssVballschlagabtausch
p3734
(dp3735
g4
I0
sg5
I1
ssVmissbraucht
p3736
(dp3737
g4
I1
sg5
I0
ssVspielte
p3738
(dp3739
g4
I0
sg5
I1
ssVbritannien
p3740
(dp3741
g4
I0
sg5
I1
ssVspeckig
p3742
(dp3743
g4
I1
sg5
I0
ssVmehr
p3744
(dp3745
g4
I14
sg5
I7
ssVstil
p3746
(dp3747
g4
I0
sg5
I1
ssVinterconnect
p3748
(dp3749
g4
I1
sg5
I0
ssVeinzelkritik
p3750
(dp3751
g4
I0
sg5
I1
ssVgreenpeace
p3752
(dp3753
g4
I0
sg5
I1
ssVdienstag
p3754
(dp3755
g4
I2
sg5
I0
ssVlahmlegen
p3756
(dp3757
g4
I1
sg5
I0
ssVwerfen
p3758
(dp3759
g4
I0
sg5
I1
ssVvorbei
p3760
(dp3761
g4
I0
sg5
I2
ssVssen
p3762
(dp3763
g4
I3
sg5
I4
ssVvermieter
p3764
(dp3765
g4
I0
sg5
I1
ssVintrovertierte
p3766
(dp3767
g4
I0
sg5
I1
ssVdeutlich
p3768
(dp3769
g4
I5
sg5
I1
ssVminus
p3770
(dp3771
g4
I0
sg5
I1
ssVknappen
p3772
(dp3773
g4
I1
sg5
I0
ssVprognostik
p3774
(dp3775
g4
I1
sg5
I0
ssVbundesstaat
p3776
(dp3777
g4
I0
sg5
I1
ssVentwickler
p3778
(dp3779
g4
I3
sg5
I0
ssVbenotet
p3780
(dp3781
g4
I0
sg5
I1
ssVtagen
p3782
(dp3783
g4
I1
sg5
I1
ssVadventure
p3784
(dp3785
g4
I1
sg5
I0
ssVriesensozialstation
p3786
(dp3787
g4
I0
sg5
I1
ssVfrei
p3788
(dp3789
g4
I0
sg5
I1
ssVteile
p3790
(dp3791
g4
I0
sg5
I1
ssVbefinden
p3792
(dp3793
g4
I1
sg5
I0
ssVkaufen
p3794
(dp3795
g4
I2
sg5
I1
ssVweltmeister
p3796
(dp3797
g4
I1
sg5
I0
ssVkein
p3798
(dp3799
g4
I3
sg5
I2
ssVbersichtlich
p3800
(dp3801
g4
I2
sg5
I0
ssVballteams
p3802
(dp3803
g4
I0
sg5
I1
ssVkraftw
p3804
(dp3805
g4
I0
sg5
I1
ssVbugs
p3806
(dp3807
g4
I1
sg5
I0
ssVergreift
p3808
(dp3809
g4
I0
sg5
I1
ssVdragon
p3810
(dp3811
g4
I1
sg5
I0
ssVhomosexuelle
p3812
(dp3813
g4
I1
sg5
I0
ssVgysi
p3814
(dp3815
g4
I0
sg5
I1
ssVbroadcasting
p3816
(dp3817
g4
I1
sg5
I0
ssVnzen
p3818
(dp3819
g4
I1
sg5
I0
ssVnftiger
p3820
(dp3821
g4
I1
sg5
I0
ssVnvidia
p3822
(dp3823
g4
I2
sg5
I0
ssVklammert
p3824
(dp3825
g4
I0
sg5
I1
ssVskizzieren
p3826
(dp3827
g4
I1
sg5
I0
ssVverkauften
p3828
(dp3829
g4
I1
sg5
I0
ssVdruckluftwaffen
p3830
(dp3831
g4
I1
sg5
I0
ssVphotoshop
p3832
(dp3833
g4
I1
sg5
I0
ssVcken
p3834
(dp3835
g4
I1
sg5
I0
ssVkettenraucher
p3836
(dp3837
g4
I0
sg5
I1
ssVverwaltungsgremien
p3838
(dp3839
g4
I1
sg5
I0
ssVheiraten
p3840
(dp3841
g4
I1
sg5
I0
ssVbundesregierung
p3842
(dp3843
g4
I1
sg5
I1
ssVlenkt
p3844
(dp3845
g4
I1
sg5
I0
ssVhell
p3846
(dp3847
g4
I1
sg5
I0
ssVbeschleunigen
p3848
(dp3849
g4
I1
sg5
I0
ssVinsgesamt
p3850
(dp3851
g4
I1
sg5
I1
ssVfeatures
p3852
(dp3853
g4
I1
sg5
I0
ssValten
p3854
(dp3855
g4
I1
sg5
I0
ssValle
p3856
(dp3857
g4
I13
sg5
I5
ssVsysteme
p3858
(dp3859
g4
I3
sg5
I0
ssVkrisenstaat
p3860
(dp3861
g4
I0
sg5
I1
ssVbernimmt
p3862
(dp3863
g4
I2
sg5
I0
ssVauftauchte
p3864
(dp3865
g4
I1
sg5
I0
ssVrigen
p3866
(dp3867
g4
I1
sg5
I0
ssVmessen
p3868
(dp3869
g4
I1
sg5
I0
ssVpolnische
p3870
(dp3871
g4
I0
sg5
I2
ssVbezahlm
p3872
(dp3873
g4
I0
sg5
I1
ssVenergien
p3874
(dp3875
g4
I0
sg5
I1
ssVfehlerhaftes
p3876
(dp3877
g4
I2
sg5
I0
ssVirakische
p3878
(dp3879
g4
I0
sg5
I1
ssValter
p3880
(dp3881
g4
I0
sg5
I1
ssVstrategisch
p3882
(dp3883
g4
I0
sg5
I1
ssVmusste
p3884
(dp3885
g4
I2
sg5
I0
ssVreturn
p3886
(dp3887
g4
I0
sg5
I1
ssVhlen
p3888
(dp3889
g4
I1
sg5
I0
ssVschminke
p3890
(dp3891
g4
I0
sg5
I1
ssVleistung
p3892
(dp3893
g4
I2
sg5
I0
ssVuhr
p3894
(dp3895
g4
I2
sg5
I0
ssVckgang
p3896
(dp3897
g4
I1
sg5
I0
ssVassociation
p3898
(dp3899
g4
I1
sg5
I0
ssVferienzeit
p3900
(dp3901
g4
I1
sg5
I0
ssVwunsch
p3902
(dp3903
g4
I1
sg5
I0
ssVstromhunger
p3904
(dp3905
g4
I1
sg5
I0
ssVvorgestellt
p3906
(dp3907
g4
I5
sg5
I0
ssVkriegshandlung
p3908
(dp3909
g4
I0
sg5
I1
ssVcomputernutzern
p3910
(dp3911
g4
I1
sg5
I0
ssVdrake
p3912
(dp3913
g4
I1
sg5
I0
ssVunklar
p3914
(dp3915
g4
I1
sg5
I1
ssVpauschalangebot
p3916
(dp3917
g4
I0
sg5
I1
ssVuniversit
p3918
(dp3919
g4
I2
sg5
I0
ssVstoppen
p3920
(dp3921
g4
I0
sg5
I1
ssVheiner
p3922
(dp3923
g4
I0
sg5
I1
ssVerlauben
p3924
(dp3925
g4
I0
sg5
I1
ssVabgefangen
p3926
(dp3927
g4
I0
sg5
I1
ssVhitzfelds
p3928
(dp3929
g4
I0
sg5
I1
ssVgeneration
p3930
(dp3931
g4
I1
sg5
I0
ssVfristen
p3932
(dp3933
g4
I1
sg5
I0
ssVhard
p3934
(dp3935
g4
I1
sg5
I0
ssVsozialunion
p3936
(dp3937
g4
I0
sg5
I1
ssVvolksvertreter
p3938
(dp3939
g4
I1
sg5
I0
ssVschwester
p3940
(dp3941
g4
I0
sg5
I1
ssVgfk
p3942
(dp3943
g4
I0
sg5
I1
ssVbedingt
p3944
(dp3945
g4
I1
sg5
I0
ssVball
p3946
(dp3947
g4
I8
sg5
I4
ssVabzugrenzen
p3948
(dp3949
g4
I0
sg5
I1
ssVtode
p3950
(dp3951
g4
I0
sg5
I1
ssVstandards
p3952
(dp3953
g4
I1
sg5
I0
ssVzeil
p3954
(dp3955
g4
I0
sg5
I1
ssVrentner
p3956
(dp3957
g4
I0
sg5
I1
ssVumsatz
p3958
(dp3959
g4
I1
sg5
I0
ssVerstmals
p3960
(dp3961
g4
I4
sg5
I1
ssVgesamten
p3962
(dp3963
g4
I1
sg5
I0
ssVknackpunkt
p3964
(dp3965
g4
I0
sg5
I1
ssVdemonstranten
p3966
(dp3967
g4
I1
sg5
I0
ssVeuropas
p3968
(dp3969
g4
I0
sg5
I1
ssVfte
p3970
(dp3971
g4
I1
sg5
I0
ssVverliehen
p3972
(dp3973
g4
I2
sg5
I0
ssVabnehmen
p3974
(dp3975
g4
I1
sg5
I0
ssVprint
p3976
(dp3977
g4
I1
sg5
I0
ssVbereich
p3978
(dp3979
g4
I2
sg5
I0
ssVnest
p3980
(dp3981
g4
I1
sg5
I0
ssVkonflikt
p3982
(dp3983
g4
I0
sg5
I2
ssVvermiesen
p3984
(dp3985
g4
I0
sg5
I1
ssVschweren
p3986
(dp3987
g4
I2
sg5
I0
ssVteam
p3988
(dp3989
g4
I1
sg5
I5
ssVsymbian
p3990
(dp3991
g4
I1
sg5
I0
ssVthema
p3992
(dp3993
g4
I0
sg5
I1
ssVmobilen
p3994
(dp3995
g4
I2
sg5
I0
ssVangesagt
p3996
(dp3997
g4
I1
sg5
I0
ssVgericht
p3998
(dp3999
g4
I1
sg5
I1
ssVmitspielen
p4000
(dp4001
g4
I1
sg5
I0
ssVmma
p4002
(dp4003
g4
I1
sg5
I0
ssVentscheidung
p4004
(dp4005
g4
I1
sg5
I1
ssVspeicherzwerge
p4006
(dp4007
g4
I1
sg5
I0
ssVdarum
p4008
(dp4009
g4
I1
sg5
I0
ssVmodelle
p4010
(dp4011
g4
I1
sg5
I0
ssVzehntkl
p4012
(dp4013
g4
I0
sg5
I1
ssVingenieure
p4014
(dp4015
g4
I1
sg5
I0
ssVbersteht
p4016
(dp4017
g4
I0
sg5
I1
ssVdiaspora
p4018
(dp4019
g4
I1
sg5
I0
ssVhauptstadtflughafen
p4020
(dp4021
g4
I0
sg5
I1
ssVcomputern
p4022
(dp4023
g4
I1
sg5
I0
ssVweltweit
p4024
(dp4025
g4
I2
sg5
I0
ssVtestergebnisse
p4026
(dp4027
g4
I0
sg5
I1
ssVnglich
p4028
(dp4029
g4
I0
sg5
I1
ssVfallen
p4030
(dp4031
g4
I1
sg5
I0
ssVbekannten
p4032
(dp4033
g4
I5
sg5
I0
ssVbekommen
p4034
(dp4035
g4
I2
sg5
I1
ssVradeon
p4036
(dp4037
g4
I1
sg5
I0
ssVstungsexporte
p4038
(dp4039
g4
I0
sg5
I1
ssVfischer
p4040
(dp4041
g4
I0
sg5
I1
ssVversand
p4042
(dp4043
g4
I1
sg5
I0
ssVblichen
p4044
(dp4045
g4
I1
sg5
I0
ssVkippt
p4046
(dp4047
g4
I0
sg5
I1
ssVnach
p4048
(dp4049
g4
I19
sg5
I14
ssVabo
p4050
(dp4051
g4
I1
sg5
I0
ssVfrequenzen
p4052
(dp4053
g4
I2
sg5
I0
ssVterminen
p4054
(dp4055
g4
I0
sg5
I1
ssVsuperhelden
p4056
(dp4057
g4
I1
sg5
I0
ssVzahlungsmittel
p4058
(dp4059
g4
I0
sg5
I1
ssVkippe
p4060
(dp4061
g4
I0
sg5
I1
ssVanwender
p4062
(dp4063
g4
I1
sg5
I0
ssVkrimi
p4064
(dp4065
g4
I0
sg5
I1
ssVrkeren
p4066
(dp4067
g4
I0
sg5
I1
ssVgetestet
p4068
(dp4069
g4
I1
sg5
I0
ssVsekunden
p4070
(dp4071
g4
I1
sg5
I0
ssVkom
p4072
(dp4073
g4
I1
sg5
I1
ssVkonsumlaune
p4074
(dp4075
g4
I0
sg5
I1
ssVlinkspolitiker
p4076
(dp4077
g4
I0
sg5
I1
ssVberwacht
p4078
(dp4079
g4
I0
sg5
I1
ssVsieg
p4080
(dp4081
g4
I0
sg5
I1
ssVswarm
p4082
(dp4083
g4
I1
sg5
I0
ssVfunktionieren
p4084
(dp4085
g4
I1
sg5
I0
ssVhandliche
p4086
(dp4087
g4
I1
sg5
I0
ssVwebide
p4088
(dp4089
g4
I1
sg5
I0
ssVnigeria
p4090
(dp4091
g4
I0
sg5
I2
ssVecuador
p4092
(dp4093
g4
I1
sg5
I3
ssVmonaten
p4094
(dp4095
g4
I3
sg5
I0
ssVfehlschl
p4096
(dp4097
g4
I1
sg5
I0
ssVoption
p4098
(dp4099
g4
I1
sg5
I0
ssVheimvernetzer
p4100
(dp4101
g4
I1
sg5
I0
ssVtastatur
p4102
(dp4103
g4
I4
sg5
I0
ssVlivestream
p4104
(dp4105
g4
I1
sg5
I0
ssVkennenlernen
p4106
(dp4107
g4
I0
sg5
I1
ssVtranssexualit
p4108
(dp4109
g4
I0
sg5
I1
ssVbuntes
p4110
(dp4111
g4
I0
sg5
I1
ssVaufwand
p4112
(dp4113
g4
I1
sg5
I0
ssVverwaltung
p4114
(dp4115
g4
I1
sg5
I0
ssVschon
p4116
(dp4117
g4
I4
sg5
I2
ssVobama
p4118
(dp4119
g4
I0
sg5
I1
ssVfreigabe
p4120
(dp4121
g4
I1
sg5
I0
ssVaac
p4122
(dp4123
g4
I1
sg5
I0
ssVillegale
p4124
(dp4125
g4
I0
sg5
I1
ssVturnierplanung
p4126
(dp4127
g4
I0
sg5
I1
ssVknapp
p4128
(dp4129
g4
I3
sg5
I1
ssVtalentierte
p4130
(dp4131
g4
I1
sg5
I0
ssVdann
p4132
(dp4133
g4
I3
sg5
I2
ssVlosballert
p4134
(dp4135
g4
I0
sg5
I1
ssVdank
p4136
(dp4137
g4
I3
sg5
I3
ssVtats
p4138
(dp4139
g4
I3
sg5
I0
ssVmaschinelles
p4140
(dp4141
g4
I1
sg5
I0
ssVkindle
p4142
(dp4143
g4
I1
sg5
I0
ssVrische
p4144
(dp4145
g4
I0
sg5
I1
ssVgehaltener
p4146
(dp4147
g4
I1
sg5
I0
ssVlinkspartei
p4148
(dp4149
g4
I0
sg5
I1
ssVufen
p4150
(dp4151
g4
I1
sg5
I0
ssVdebugging
p4152
(dp4153
g4
I1
sg5
I0
ssVmotivation
p4154
(dp4155
g4
I0
sg5
I1
ssVhnele
p4156
(dp4157
g4
I0
sg5
I1
ssVgeordneten
p4158
(dp4159
g4
I0
sg5
I1
ssVreise
p4160
(dp4161
g4
I1
sg5
I0
ssVbundestrainer
p4162
(dp4163
g4
I0
sg5
I1
ssVnachlegen
p4164
(dp4165
g4
I1
sg5
I0
ssVwasserstoffantrieb
p4166
(dp4167
g4
I0
sg5
I1
ssVaufkleber
p4168
(dp4169
g4
I0
sg5
I1
ssVsslich
p4170
(dp4171
g4
I1
sg5
I0
ssVgala
p4172
(dp4173
g4
I0
sg5
I1
ssVgeheimen
p4174
(dp4175
g4
I0
sg5
I1
ssVreist
p4176
(dp4177
g4
I0
sg5
I1
ssVpreise
p4178
(dp4179
g4
I2
sg5
I0
ssVsteht
p4180
(dp4181
g4
I7
sg5
I3
ssVeingesetzt
p4182
(dp4183
g4
I1
sg5
I0
ssVbeteiligten
p4184
(dp4185
g4
I1
sg5
I0
ssVkarl
p4186
(dp4187
g4
I0
sg5
I1
ssVoptischen
p4188
(dp4189
g4
I1
sg5
I0
ssVschlafen
p4190
(dp4191
g4
I0
sg5
I1
ssVbelriesen
p4192
(dp4193
g4
I1
sg5
I0
ssVvarianten
p4194
(dp4195
g4
I1
sg5
I0
ssVhgr
p4196
(dp4197
g4
I1
sg5
I0
ssVdiscounter
p4198
(dp4199
g4
I2
sg5
I0
ssVckgezogen
p4200
(dp4201
g4
I1
sg5
I0
ssVbono
p4202
(dp4203
g4
I1
sg5
I0
ssVreisezoom
p4204
(dp4205
g4
I1
sg5
I0
ssVbuild
p4206
(dp4207
g4
I1
sg5
I0
ssVschwarze
p4208
(dp4209
g4
I0
sg5
I1
ssVunsichtbarer
p4210
(dp4211
g4
I0
sg5
I1
ssVgeheimdienste
p4212
(dp4213
g4
I1
sg5
I0
ssVkommandeur
p4214
(dp4215
g4
I0
sg5
I1
ssVdatenflut
p4216
(dp4217
g4
I1
sg5
I0
ssVhirntumoren
p4218
(dp4219
g4
I0
sg5
I1
ssVtintenstrahldrucker
p4220
(dp4221
g4
I1
sg5
I0
ssVfiesen
p4222
(dp4223
g4
I1
sg5
I0
ssVklobige
p4224
(dp4225
g4
I1
sg5
I0
ssVplan
p4226
(dp4227
g4
I1
sg5
I0
ssVvergleicht
p4228
(dp4229
g4
I0
sg5
I1
ssVwatt
p4230
(dp4231
g4
I1
sg5
I0
ssVverpfuschten
p4232
(dp4233
g4
I0
sg5
I1
ssVdiversen
p4234
(dp4235
g4
I1
sg5
I0
ssVurlaub
p4236
(dp4237
g4
I1
sg5
I0
ssVkombiger
p4238
(dp4239
g4
I1
sg5
I0
ssVbisherige
p4240
(dp4241
g4
I0
sg5
I1
ssVbzw
p4242
(dp4243
g4
I1
sg5
I0
ssVwindows
p4244
(dp4245
g4
I13
sg5
I0
ssVspezifischen
p4246
(dp4247
g4
I1
sg5
I0
ssVtote
p4248
(dp4249
g4
I0
sg5
I1
ssVwiese
p4250
(dp4251
g4
I1
sg5
I0
ssVhandfesten
p4252
(dp4253
g4
I1
sg5
I0
ssVhierbei
p4254
(dp4255
g4
I1
sg5
I0
ssVasus
p4256
(dp4257
g4
I2
sg5
I0
ssVgijon
p4258
(dp4259
g4
I0
sg5
I1
ssVnchen
p4260
(dp4261
g4
I0
sg5
I1
ssVmicrosoft
p4262
(dp4263
g4
I12
sg5
I0
ssVwarteliste
p4264
(dp4265
g4
I0
sg5
I1
ssVintels
p4266
(dp4267
g4
I1
sg5
I0
ssVrte
p4268
(dp4269
g4
I0
sg5
I1
ssVkonkreter
p4270
(dp4271
g4
I1
sg5
I0
ssVthomas
p4272
(dp4273
g4
I1
sg5
I1
ssVunserer
p4274
(dp4275
g4
I1
sg5
I0
ssVweiterleitete
p4276
(dp4277
g4
I1
sg5
I0
ssVehemalige
p4278
(dp4279
g4
I1
sg5
I0
ssVmiteinander
p4280
(dp4281
g4
I1
sg5
I0
ssVausgemacht
p4282
(dp4283
g4
I1
sg5
I0
ssVlehr
p4284
(dp4285
g4
I0
sg5
I1
ssVcdu
p4286
(dp4287
g4
I0
sg5
I3
ssVrelation
p4288
(dp4289
g4
I1
sg5
I0
ssVgelegt
p4290
(dp4291
g4
I1
sg5
I0
ssVvorteil
p4292
(dp4293
g4
I0
sg5
I1
ssVscreenshots
p4294
(dp4295
g4
I1
sg5
I0
ssVunseren
p4296
(dp4297
g4
I3
sg5
I1
ssVaccess
p4298
(dp4299
g4
I1
sg5
I0
ssVeinfallsreichtum
p4300
(dp4301
g4
I1
sg5
I0
ssVtodesstrafe
p4302
(dp4303
g4
I0
sg5
I1
ssVshaqiri
p4304
(dp4305
g4
I0
sg5
I3
ssVjuncker
p4306
(dp4307
g4
I0
sg5
I4
ssVlanges
p4308
(dp4309
g4
I0
sg5
I1
ssValarmbereitschaft
p4310
(dp4311
g4
I0
sg5
I1
ssVabend
p4312
(dp4313
g4
I1
sg5
I0
ssVinstallieren
p4314
(dp4315
g4
I1
sg5
I0
ssVequity
p4316
(dp4317
g4
I1
sg5
I0
ssVhatte
p4318
(dp4319
g4
I2
sg5
I1
ssVkreditkarten
p4320
(dp4321
g4
I0
sg5
I1
ssVszene
p4322
(dp4323
g4
I0
sg5
I1
ssVbegabte
p4324
(dp4325
g4
I1
sg5
I0
ssVvermeintlichen
p4326
(dp4327
g4
I1
sg5
I0
ssVhiv
p4328
(dp4329
g4
I1
sg5
I0
ssVffentlich
p4330
(dp4331
g4
I1
sg5
I0
ssVinklusive
p4332
(dp4333
g4
I1
sg5
I0
ssVdatensammlern
p4334
(dp4335
g4
I1
sg5
I0
ssVneuesten
p4336
(dp4337
g4
I1
sg5
I0
ssVbedenklicher
p4338
(dp4339
g4
I0
sg5
I1
ssVexplodiert
p4340
(dp4341
g4
I0
sg5
I1
ssVhie
p4342
(dp4343
g4
I1
sg5
I0
ssVinternational
p4344
(dp4345
g4
I0
sg5
I1
ssVfahrerlosen
p4346
(dp4347
g4
I1
sg5
I0
ssVhin
p4348
(dp4349
g4
I1
sg5
I1
ssVtransatlantischen
p4350
(dp4351
g4
I0
sg5
I1
ssVkritisierte
p4352
(dp4353
g4
I0
sg5
I1
ssVbietet
p4354
(dp4355
g4
I12
sg5
I0
ssVnzt
p4356
(dp4357
g4
I1
sg5
I0
ssVeinkaufszentrum
p4358
(dp4359
g4
I0
sg5
I1
ssVberzahl
p4360
(dp4361
g4
I0
sg5
I1
ssVgeld
p4362
(dp4363
g4
I3
sg5
I1
ssVnazis
p4364
(dp4365
g4
I0
sg5
I1
ssVrfe
p4366
(dp4367
g4
I2
sg5
I1
ssVrderischen
p4368
(dp4369
g4
I0
sg5
I1
ssVfortan
p4370
(dp4371
g4
I1
sg5
I0
ssVkonzern
p4372
(dp4373
g4
I3
sg5
I1
ssVurteil
p4374
(dp4375
g4
I0
sg5
I3
ssVzensieren
p4376
(dp4377
g4
I1
sg5
I0
ssVset
p4378
(dp4379
g4
I1
sg5
I0
ssVart
p4380
(dp4381
g4
I0
sg5
I2
ssVntsch
p4382
(dp4383
g4
I0
sg5
I1
ssVhersteller
p4384
(dp4385
g4
I5
sg5
I0
ssVrhubschraubers
p4386
(dp4387
g4
I0
sg5
I1
ssVgewinnt
p4388
(dp4389
g4
I1
sg5
I0
ssVsex
p4390
(dp4391
g4
I1
sg5
I1
ssVhochdruck
p4392
(dp4393
g4
I0
sg5
I1
ssVvorne
p4394
(dp4395
g4
I1
sg5
I0
ssVard
p4396
(dp4397
g4
I3
sg5
I0
ssVschiiten
p4398
(dp4399
g4
I0
sg5
I1
ssVallmacht
p4400
(dp4401
g4
I1
sg5
I0
ssVmethan
p4402
(dp4403
g4
I1
sg5
I0
ssVsatellitenbilder
p4404
(dp4405
g4
I1
sg5
I0
ssVzitierte
p4406
(dp4407
g4
I1
sg5
I0
ssVangeschlossenen
p4408
(dp4409
g4
I1
sg5
I0
ssVarm
p4410
(dp4411
g4
I2
sg5
I0
ssVsei
p4412
(dp4413
g4
I2
sg5
I1
ssVngerem
p4414
(dp4415
g4
I1
sg5
I0
ssVverba
p4416
(dp4417
g4
I1
sg5
I0
ssVexpert
p4418
(dp4419
g4
I1
sg5
I0
ssVquartal
p4420
(dp4421
g4
I2
sg5
I0
ssVerfolg
p4422
(dp4423
g4
I0
sg5
I1
ssVwom
p4424
(dp4425
g4
I1
sg5
I0
ssVverbr
p4426
(dp4427
g4
I2
sg5
I0
ssVdurcheinanderbringen
p4428
(dp4429
g4
I0
sg5
I1
ssVsonst
p4430
(dp4431
g4
I1
sg5
I0
ssVreformiert
p4432
(dp4433
g4
I0
sg5
I1
ssVngeres
p4434
(dp4435
g4
I1
sg5
I0
ssVschuldenregeln
p4436
(dp4437
g4
I0
sg5
I2
ssVsoll
p4438
(dp4439
g4
I13
sg5
I4
ssVvorhersagen
p4440
(dp4441
g4
I1
sg5
I0
ssVeuropa
p4442
(dp4443
g4
I0
sg5
I7
ssVjeden
p4444
(dp4445
g4
I2
sg5
I0
ssVversetzte
p4446
(dp4447
g4
I0
sg5
I1
ssVlange
p4448
(dp4449
g4
I0
sg5
I2
ssVgutachter
p4450
(dp4451
g4
I1
sg5
I0
ssVdruckt
p4452
(dp4453
g4
I1
sg5
I0
ssVsommerzeit
p4454
(dp4455
g4
I1
sg5
I0
ssVsprachbefehlen
p4456
(dp4457
g4
I1
sg5
I0
ssVopposition
p4458
(dp4459
g4
I0
sg5
I1
ssVjedes
p4460
(dp4461
g4
I1
sg5
I0
ssVjeder
p4462
(dp4463
g4
I2
sg5
I0
ssVrper
p4464
(dp4465
g4
I0
sg5
I1
ssVwerbung
p4466
(dp4467
g4
I1
sg5
I0
ssVleague
p4468
(dp4469
g4
I1
sg5
I0
ssVterrestrisches
p4470
(dp4471
g4
I1
sg5
I0
ssVabgegeben
p4472
(dp4473
g4
I0
sg5
I1
ssVwhistleblowers
p4474
(dp4475
g4
I1
sg5
I0
ssVsaturnmond
p4476
(dp4477
g4
I1
sg5
I0
ssVschlagzeilen
p4478
(dp4479
g4
I0
sg5
I1
ssVnimmt
p4480
(dp4481
g4
I2
sg5
I1
ssVbeginn
p4482
(dp4483
g4
I0
sg5
I2
ssVniersbach
p4484
(dp4485
g4
I0
sg5
I1
ssVeinzieht
p4486
(dp4487
g4
I0
sg5
I1
ssVndnis
p4488
(dp4489
g4
I0
sg5
I1
ssVsuchmaschinenkonzern
p4490
(dp4491
g4
I1
sg5
I0
ssVhrigen
p4492
(dp4493
g4
I1
sg5
I0
ssVinteressante
p4494
(dp4495
g4
I1
sg5
I0
ssVetikette
p4496
(dp4497
g4
I0
sg5
I1
ssVmedion
p4498
(dp4499
g4
I2
sg5
I0
ssVzwingt
p4500
(dp4501
g4
I1
sg5
I0
ssVmicrosd
p4502
(dp4503
g4
I1
sg5
I0
ssVzusammen
p4504
(dp4505
g4
I2
sg5
I0
ssVdesktop
p4506
(dp4507
g4
I3
sg5
I0
ssVwachstum
p4508
(dp4509
g4
I0
sg5
I2
ssVkonnten
p4510
(dp4511
g4
I1
sg5
I0
ssVelektro
p4512
(dp4513
g4
I1
sg5
I0
ssVgeformt
p4514
(dp4515
g4
I1
sg5
I0
ssVrivale
p4516
(dp4517
g4
I1
sg5
I0
ssVhinterm
p4518
(dp4519
g4
I1
sg5
I0
ssVstehende
p4520
(dp4521
g4
I1
sg5
I0
ssVbilligmode
p4522
(dp4523
g4
I0
sg5
I1
ssVltlich
p4524
(dp4525
g4
I1
sg5
I0
ssVffnet
p4526
(dp4527
g4
I0
sg5
I1
ssVarbeit
p4528
(dp4529
g4
I1
sg5
I0
ssVgelato
p4530
(dp4531
g4
I0
sg5
I1
ssVverwandelt
p4532
(dp4533
g4
I1
sg5
I0
ssVscherz
p4534
(dp4535
g4
I1
sg5
I0
ssVppchen
p4536
(dp4537
g4
I7
sg5
I0
ssVbeispiel
p4538
(dp4539
g4
I1
sg5
I0
ssVwohlhabende
p4540
(dp4541
g4
I0
sg5
I1
ssVbestand
p4542
(dp4543
g4
I1
sg5
I0
ssVndete
p4544
(dp4545
g4
I2
sg5
I0
ssVadresse
p4546
(dp4547
g4
I1
sg5
I0
ssVimac
p4548
(dp4549
g4
I1
sg5
I0
ssVechte
p4550
(dp4551
g4
I1
sg5
I0
ssVanzupassen
p4552
(dp4553
g4
I1
sg5
I0
ssVheute
p4554
(dp4555
g4
I4
sg5
I1
ssVsonder
p4556
(dp4557
g4
I1
sg5
I0
ssVnrw
p4558
(dp4559
g4
I0
sg5
I1
ssVgab
p4560
(dp4561
g4
I1
sg5
I0
ssVmilit
p4562
(dp4563
g4
I0
sg5
I4
ssVimplementierung
p4564
(dp4565
g4
I1
sg5
I0
ssVprogramm
p4566
(dp4567
g4
I3
sg5
I1
ssVlook
p4568
(dp4569
g4
I1
sg5
I0
ssVprojekt
p4570
(dp4571
g4
I1
sg5
I2
ssVverlage
p4572
(dp4573
g4
I1
sg5
I0
ssVchten
p4574
(dp4575
g4
I1
sg5
I0
ssVchtek
p4576
(dp4577
g4
I1
sg5
I0
ssVprofessioneller
p4578
(dp4579
g4
I1
sg5
I0
ssVeingebracht
p4580
(dp4581
g4
I1
sg5
I0
ssVbetrachtete
p4582
(dp4583
g4
I1
sg5
I0
ssVwirtschaft
p4584
(dp4585
g4
I0
sg5
I1
ssVsterte
p4586
(dp4587
g4
I1
sg5
I0
ssVpatchday
p4588
(dp4589
g4
I1
sg5
I0
ssVinhaltsstoffe
p4590
(dp4591
g4
I0
sg5
I1
ssVgeholfen
p4592
(dp4593
g4
I0
sg5
I1
ssVumfassend
p4594
(dp4595
g4
I3
sg5
I0
ssVignoriert
p4596
(dp4597
g4
I0
sg5
I1
ssVsicherer
p4598
(dp4599
g4
I2
sg5
I0
ssVportugal
p4600
(dp4601
g4
I1
sg5
I0
ssVstunde
p4602
(dp4603
g4
I1
sg5
I2
ssVbewegen
p4604
(dp4605
g4
I1
sg5
I0
ssVvom
p4606
(dp4607
g4
I7
sg5
I4
ssVvon
p4608
(dp4609
g4
I42
sg5
I28
ssVarztes
p4610
(dp4611
g4
I0
sg5
I1
ssVflatrate
p4612
(dp4613
g4
I1
sg5
I0
ssVfestgestellt
p4614
(dp4615
g4
I0
sg5
I1
ssVwhistleblowerin
p4616
(dp4617
g4
I1
sg5
I0
ssVvor
p4618
(dp4619
g4
I16
sg5
I8
ssVskype
p4620
(dp4621
g4
I1
sg5
I0
ssVzieht
p4622
(dp4623
g4
I3
sg5
I1
ssVhandelsblatt
p4624
(dp4625
g4
I0
sg5
I1
ssVhandgelenk
p4626
(dp4627
g4
I1
sg5
I0
ssVbeweisen
p4628
(dp4629
g4
I1
sg5
I0
ssVdienstleister
p4630
(dp4631
g4
I1
sg5
I0
ssVvergleich
p4632
(dp4633
g4
I1
sg5
I1
ssVstreitkr
p4634
(dp4635
g4
I1
sg5
I0
ssVrecht
p4636
(dp4637
g4
I1
sg5
I1
ssVkonomisch
p4638
(dp4639
g4
I0
sg5
I1
ssVtchen
p4640
(dp4641
g4
I0
sg5
I1
ssVeuronics
p4642
(dp4643
g4
I1
sg5
I0
ssVforderungen
p4644
(dp4645
g4
I1
sg5
I0
ssVattackiert
p4646
(dp4647
g4
I0
sg5
I1
ssVhinrichtung
p4648
(dp4649
g4
I0
sg5
I1
ssVrauchender
p4650
(dp4651
g4
I0
sg5
I1
ssVitalo
p4652
(dp4653
g4
I0
sg5
I1
ssVeingef
p4654
(dp4655
g4
I2
sg5
I0
ssVberarbeitet
p4656
(dp4657
g4
I1
sg5
I0
ssVeingen
p4658
(dp4659
g4
I0
sg5
I1
ssVwirtschaftlich
p4660
(dp4661
g4
I0
sg5
I1
ssVanschauen
p4662
(dp4663
g4
I3
sg5
I0
ssVrabatz
p4664
(dp4665
g4
I0
sg5
I1
ssVwarum
p4666
(dp4667
g4
I0
sg5
I3
ssVdigitale
p4668
(dp4669
g4
I0
sg5
I1
ssVzwar
p4670
(dp4671
g4
I2
sg5
I1
ssVusen
p4672
(dp4673
g4
I0
sg5
I1
ssVdeklassiert
p4674
(dp4675
g4
I1
sg5
I0
ssVoptik
p4676
(dp4677
g4
I1
sg5
I0
ssVviewing
p4678
(dp4679
g4
I3
sg5
I0
ssVfreie
p4680
(dp4681
g4
I0
sg5
I1
ssVdynamische
p4682
(dp4683
g4
I1
sg5
I0
ssVverboten
p4684
(dp4685
g4
I1
sg5
I0
ssVstilistisch
p4686
(dp4687
g4
I1
sg5
I0
ssVeuro
p4688
(dp4689
g4
I8
sg5
I3
ssVschiitische
p4690
(dp4691
g4
I0
sg5
I1
ssVerweitern
p4692
(dp4693
g4
I1
sg5
I0
ssVverklagen
p4694
(dp4695
g4
I0
sg5
I2
ssVkollegen
p4696
(dp4697
g4
I0
sg5
I1
ssVstellen
p4698
(dp4699
g4
I5
sg5
I0
ssVedge
p4700
(dp4701
g4
I1
sg5
I0
ssVmachinery
p4702
(dp4703
g4
I1
sg5
I0
ssVcannes
p4704
(dp4705
g4
I1
sg5
I0
ssVwohnung
p4706
(dp4707
g4
I0
sg5
I3
ssVerweitert
p4708
(dp4709
g4
I1
sg5
I0
ssVbedrohte
p4710
(dp4711
g4
I1
sg5
I0
ssVerfuhr
p4712
(dp4713
g4
I1
sg5
I0
ssVgsm
p4714
(dp4715
g4
I1
sg5
I0
ssVeiswerkstatt
p4716
(dp4717
g4
I0
sg5
I1
ssVsims
p4718
(dp4719
g4
I1
sg5
I0
ssVhingegen
p4720
(dp4721
g4
I0
sg5
I1
ssVeigenen
p4722
(dp4723
g4
I3
sg5
I2
ssVfliegen
p4724
(dp4725
g4
I0
sg5
I1
ssVhinnehmen
p4726
(dp4727
g4
I1
sg5
I0
ssVkomplett
p4728
(dp4729
g4
I1
sg5
I0
ssVinfrastruktur
p4730
(dp4731
g4
I1
sg5
I0
ssVrechte
p4732
(dp4733
g4
I0
sg5
I1
ssVamp
p4734
(dp4735
g4
I1
sg5
I1
ssVtaiwan
p4736
(dp4737
g4
I1
sg5
I1
ssVwearable
p4738
(dp4739
g4
I3
sg5
I0
ssVkurtz
p4740
(dp4741
g4
I0
sg5
I1
ssVfinden
p4742
(dp4743
g4
I6
sg5
I0
ssVsparte
p4744
(dp4745
g4
I1
sg5
I0
ssVueltaten
p4746
(dp4747
g4
I0
sg5
I1
ssVdslr
p4748
(dp4749
g4
I1
sg5
I0
ssVtodkranke
p4750
(dp4751
g4
I1
sg5
I0
ssValso
p4752
(dp4753
g4
I1
sg5
I0
ssVstabilit
p4754
(dp4755
g4
I0
sg5
I1
ssVhitzfeld
p4756
(dp4757
g4
I0
sg5
I1
ssVfrischer
p4758
(dp4759
g4
I1
sg5
I0
ssVsource
p4760
(dp4761
g4
I1
sg5
I0
ssVaps
p4762
(dp4763
g4
I1
sg5
I0
ssVfindet
p4764
(dp4765
g4
I0
sg5
I1
ssVdslm
p4766
(dp4767
g4
I1
sg5
I0
ssVprobieren
p4768
(dp4769
g4
I1
sg5
I0
ssVzufall
p4770
(dp4771
g4
I0
sg5
I1
ssVsmartwatches
p4772
(dp4773
g4
I3
sg5
I1
ssVaktion
p4774
(dp4775
g4
I1
sg5
I0
ssVformat
p4776
(dp4777
g4
I1
sg5
I0
ssVdvds
p4778
(dp4779
g4
I1
sg5
I0
ssVerwartet
p4780
(dp4781
g4
I2
sg5
I1
ssVhochladevorgang
p4782
(dp4783
g4
I1
sg5
I0
ssVheilige
p4784
(dp4785
g4
I1
sg5
I0
ssVeinkaufsviertel
p4786
(dp4787
g4
I0
sg5
I1
ssVlinksextremer
p4788
(dp4789
g4
I0
sg5
I1
ssVerwarten
p4790
(dp4791
g4
I2
sg5
I0
ssVlassen
p4792
(dp4793
g4
I5
sg5
I4
ssVbit
p4794
(dp4795
g4
I1
sg5
I0
ssVruft
p4796
(dp4797
g4
I2
sg5
I0
ssVrfnisse
p4798
(dp4799
g4
I2
sg5
I0
ssVhrdeten
p4800
(dp4801
g4
I1
sg5
I0
ssVerste
p4802
(dp4803
g4
I5
sg5
I0
ssVtoyota
p4804
(dp4805
g4
I0
sg5
I1
ssVteil
p4806
(dp4807
g4
I1
sg5
I0
ssVbetagte
p4808
(dp4809
g4
I1
sg5
I0
ssVregierungsmitteilu
p4810
(dp4811
g4
I1
sg5
I0
ssVeeg
p4812
(dp4813
g4
I0
sg5
I1
ssVbundesverband
p4814
(dp4815
g4
I1
sg5
I0
ssVempf
p4816
(dp4817
g4
I1
sg5
I0
ssVunesco
p4818
(dp4819
g4
I0
sg5
I1
ssVgoogle
p4820
(dp4821
g4
I27
sg5
I2
ssVsorgen
p4822
(dp4823
g4
I4
sg5
I1
ssVbritischen
p4824
(dp4825
g4
I0
sg5
I1
ssVhinter
p4826
(dp4827
g4
I3
sg5
I1
ssVstreaming
p4828
(dp4829
g4
I2
sg5
I0
ssVfestplatte
p4830
(dp4831
g4
I1
sg5
I0
ssVoffenbar
p4832
(dp4833
g4
I4
sg5
I1
ssVvermutlich
p4834
(dp4835
g4
I1
sg5
I1
ssVmontag
p4836
(dp4837
g4
I1
sg5
I0
ssVsprachlichen
p4838
(dp4839
g4
I1
sg5
I0
ssVintegration
p4840
(dp4841
g4
I1
sg5
I0
ssVper
p4842
(dp4843
g4
I8
sg5
I0
ssVgebucht
p4844
(dp4845
g4
I0
sg5
I1
ssVbauverhinderer
p4846
(dp4847
g4
I0
sg5
I1
ssVsagen
p4848
(dp4849
g4
I1
sg5
I0
ssVausgestattet
p4850
(dp4851
g4
I1
sg5
I0
ssVtastenk
p4852
(dp4853
g4
I1
sg5
I0
ssVboko
p4854
(dp4855
g4
I0
sg5
I1
ssVschadensverh
p4856
(dp4857
g4
I1
sg5
I0
ssVkostenlose
p4858
(dp4859
g4
I2
sg5
I0
ssVacht
p4860
(dp4861
g4
I1
sg5
I0
ssVufc
p4862
(dp4863
g4
I1
sg5
I0
ssVruf
p4864
(dp4865
g4
I1
sg5
I0
ssVgeldw
p4866
(dp4867
g4
I0
sg5
I1
ssVjustizminister
p4868
(dp4869
g4
I0
sg5
I4
ssVweil
p4870
(dp4871
g4
I0
sg5
I4
ssVbayern
p4872
(dp4873
g4
I0
sg5
I2
ssVuft
p4874
(dp4875
g4
I2
sg5
I1
ssVuntereinander
p4876
(dp4877
g4
I1
sg5
I0
ssVglorreichen
p4878
(dp4879
g4
I0
sg5
I1
ssVstandfu
p4880
(dp4881
g4
I1
sg5
I0
ssVgruppeneinteilung
p4882
(dp4883
g4
I0
sg5
I1
ssVnden
p4884
(dp4885
g4
I2
sg5
I0
ssVchiphersteller
p4886
(dp4887
g4
I1
sg5
I0
ssVmaas
p4888
(dp4889
g4
I0
sg5
I2
ssVdarauf
p4890
(dp4891
g4
I0
sg5
I1
ssVdatenmengen
p4892
(dp4893
g4
I1
sg5
I0
ssVerweist
p4894
(dp4895
g4
I1
sg5
I0
ssVhrlich
p4896
(dp4897
g4
I0
sg5
I1
ssVbeliebten
p4898
(dp4899
g4
I2
sg5
I0
ssVwegenetz
p4900
(dp4901
g4
I0
sg5
I1
ssVruhiger
p4902
(dp4903
g4
I1
sg5
I0
ssVinternetknotens
p4904
(dp4905
g4
I1
sg5
I0
ssVndet
p4906
(dp4907
g4
I1
sg5
I1
ssVblock
p4908
(dp4909
g4
I1
sg5
I0
ssVletalen
p4910
(dp4911
g4
I1
sg5
I0
ssVgesetzentwurf
p4912
(dp4913
g4
I0
sg5
I2
ssVnsa
p4914
(dp4915
g4
I5
sg5
I3
ssVrolle
p4916
(dp4917
g4
I1
sg5
I1
ssVzinsen
p4918
(dp4919
g4
I0
sg5
I1
ssVsicherheitsleck
p4920
(dp4921
g4
I1
sg5
I0
ssVgilt
p4922
(dp4923
g4
I1
sg5
I0
ssVversteckte
p4924
(dp4925
g4
I1
sg5
I0
ssVgenehmigt
p4926
(dp4927
g4
I0
sg5
I1
ssVabteilung
p4928
(dp4929
g4
I1
sg5
I0
ssVfilme
p4930
(dp4931
g4
I1
sg5
I0
ssVanonyme
p4932
(dp4933
g4
I1
sg5
I0
ssVeinheitliches
p4934
(dp4935
g4
I1
sg5
I0
ssVnsu
p4936
(dp4937
g4
I0
sg5
I1
ssVverfahren
p4938
(dp4939
g4
I0
sg5
I1
ssVdateiendung
p4940
(dp4941
g4
I1
sg5
I0
ssVgefangenen
p4942
(dp4943
g4
I0
sg5
I1
ssVwundersch
p4944
(dp4945
g4
I1
sg5
I0
ssVleuchtet
p4946
(dp4947
g4
I1
sg5
I0
ssVkonkurrenten
p4948
(dp4949
g4
I1
sg5
I1
ssVverlorenen
p4950
(dp4951
g4
I0
sg5
I1
ssVverbotene
p4952
(dp4953
g4
I0
sg5
I1
ssVliegt
p4954
(dp4955
g4
I2
sg5
I0
ssVrichtige
p4956
(dp4957
g4
I1
sg5
I0
ssVsocs
p4958
(dp4959
g4
I1
sg5
I0
ssVschulden
p4960
(dp4961
g4
I0
sg5
I1
ssVtestbericht
p4962
(dp4963
g4
I1
sg5
I0
ssVfer
p4964
(dp4965
g4
I0
sg5
I1
ssVinstallierte
p4966
(dp4967
g4
I1
sg5
I0
ssVjubelt
p4968
(dp4969
g4
I0
sg5
I1
ssVhelfen
p4970
(dp4971
g4
I0
sg5
I1
ssVwtxl
p4972
(dp4973
g4
I1
sg5
I0
ssVreine
p4974
(dp4975
g4
I0
sg5
I1
ssVabspielen
p4976
(dp4977
g4
I1
sg5
I0
ssVgccs
p4978
(dp4979
g4
I1
sg5
I0
ssVatom
p4980
(dp4981
g4
I1
sg5
I0
ssVfragt
p4982
(dp4983
g4
I1
sg5
I0
ssVunangenehme
p4984
(dp4985
g4
I0
sg5
I1
ssVerkenntnis
p4986
(dp4987
g4
I0
sg5
I1
ssVanlass
p4988
(dp4989
g4
I0
sg5
I1
ssVwaffenruhe
p4990
(dp4991
g4
I0
sg5
I2
ssVmobile
p4992
(dp4993
g4
I5
sg5
I0
ssVumgestellt
p4994
(dp4995
g4
I1
sg5
I0
ssVsollte
p4996
(dp4997
g4
I1
sg5
I2
ssVheterogeneous
p4998
(dp4999
g4
I1
sg5
I0
ssVpolitik
p5000
(dp5001
g4
I0
sg5
I1
ssVradikalreform
p5002
(dp5003
g4
I0
sg5
I1
ssVmietpreisbremse
p5004
(dp5005
g4
I0
sg5
I2
ssVvorschau
p5006
(dp5007
g4
I1
sg5
I0
ssVtaiwanische
p5008
(dp5009
g4
I1
sg5
I0
ssVverwenden
p5010
(dp5011
g4
I1
sg5
I0
ssVuhren
p5012
(dp5013
g4
I2
sg5
I0
ssVsichere
p5014
(dp5015
g4
I1
sg5
I0
ssVunterschied
p5016
(dp5017
g4
I1
sg5
I1
ssVwerbespots
p5018
(dp5019
g4
I1
sg5
I0
ssVmagische
p5020
(dp5021
g4
I1
sg5
I0
ssVgestaltet
p5022
(dp5023
g4
I1
sg5
I0
ssVhaff
p5024
(dp5025
g4
I0
sg5
I1
ssVbetriebssystem
p5026
(dp5027
g4
I6
sg5
I0
ssVkombi
p5028
(dp5029
g4
I1
sg5
I0
ssVfracking
p5030
(dp5031
g4
I0
sg5
I1
ssVcristina
p5032
(dp5033
g4
I0
sg5
I1
ssVraubkopien
p5034
(dp5035
g4
I1
sg5
I0
ssVgro
p5036
(dp5037
g4
I5
sg5
I9
ssVkira
p5038
(dp5039
g4
I1
sg5
I0
ssVklassenfahrten
p5040
(dp5041
g4
I0
sg5
I1
ssVwohn
p5042
(dp5043
g4
I1
sg5
I0
ssVportugiesin
p5044
(dp5045
g4
I0
sg5
I1
ssVwohl
p5046
(dp5047
g4
I2
sg5
I0
ssVffentlicht
p5048
(dp5049
g4
I5
sg5
I0
ssVbauteil
p5050
(dp5051
g4
I1
sg5
I0
ssVlufthansa
p5052
(dp5053
g4
I0
sg5
I2
ssVsteuerbetrug
p5054
(dp5055
g4
I0
sg5
I1
ssVinformanten
p5056
(dp5057
g4
I1
sg5
I0
ssVentschuldigt
p5058
(dp5059
g4
I0
sg5
I1
ssVfrankreichs
p5060
(dp5061
g4
I0
sg5
I1
ssVchst
p5062
(dp5063
g4
I3
sg5
I1
ssVskandal
p5064
(dp5065
g4
I3
sg5
I0
ssVland
p5066
(dp5067
g4
I0
sg5
I1
ssVsucht
p5068
(dp5069
g4
I1
sg5
I0
ssVremis
p5070
(dp5071
g4
I0
sg5
I1
ssVage
p5072
(dp5073
g4
I1
sg5
I0
ssVyoutube
p5074
(dp5075
g4
I1
sg5
I0
ssVceska
p5076
(dp5077
g4
I0
sg5
I1
ssVdvb
p5078
(dp5079
g4
I1
sg5
I0
ssVchse
p5080
(dp5081
g4
I1
sg5
I0
ssVsummit
p5082
(dp5083
g4
I1
sg5
I0
ssVwindige
p5084
(dp5085
g4
I1
sg5
I0
ssVoracle
p5086
(dp5087
g4
I1
sg5
I0
ssVschwung
p5088
(dp5089
g4
I1
sg5
I0
ssVdiskriminiert
p5090
(dp5091
g4
I0
sg5
I1
ssVcode
p5092
(dp5093
g4
I2
sg5
I0
ssVzivilrechtlichen
p5094
(dp5095
g4
I1
sg5
I0
ssVganz
p5096
(dp5097
g4
I6
sg5
I0
ssVapplikationen
p5098
(dp5099
g4
I1
sg5
I0
ssVostdeutschland
p5100
(dp5101
g4
I0
sg5
I1
ssVtoten
p5102
(dp5103
g4
I0
sg5
I1
ssVostukraine
p5104
(dp5105
g4
I0
sg5
I2
ssVstandort
p5106
(dp5107
g4
I1
sg5
I0
ssVjoachim
p5108
(dp5109
g4
I0
sg5
I1
ssVdagegen
p5110
(dp5111
g4
I1
sg5
I1
ssVpreiswert
p5112
(dp5113
g4
I1
sg5
I0
ssVcoolpix
p5114
(dp5115
g4
I2
sg5
I0
ssVschwere
p5116
(dp5117
g4
I1
sg5
I0
ssVnder
p5118
(dp5119
g4
I0
sg5
I4
ssVvorbereitung
p5120
(dp5121
g4
I0
sg5
I1
ssVlibressl
p5122
(dp5123
g4
I1
sg5
I0
ssVautostarter
p5124
(dp5125
g4
I1
sg5
I0
ssVprotokoll
p5126
(dp5127
g4
I1
sg5
I0
ssVgrundlegend
p5128
(dp5129
g4
I0
sg5
I1
ssVtausende
p5130
(dp5131
g4
I0
sg5
I1
ssVgezwungen
p5132
(dp5133
g4
I1
sg5
I0
ssVhinrichtungsmethode
p5134
(dp5135
g4
I0
sg5
I1
ssVging
p5136
(dp5137
g4
I1
sg5
I0
ssVbombastische
p5138
(dp5139
g4
I1
sg5
I0
ssVwave
p5140
(dp5141
g4
I1
sg5
I0
ssVfacebook
p5142
(dp5143
g4
I5
sg5
I2
ssVmobilit
p5144
(dp5145
g4
I1
sg5
I0
ssVlfte
p5146
(dp5147
g4
I0
sg5
I1
ssVschweizerische
p5148
(dp5149
g4
I1
sg5
I0
ssVunerprobten
p5150
(dp5151
g4
I0
sg5
I1
ssVcarplay
p5152
(dp5153
g4
I1
sg5
I0
ssVzeit
p5154
(dp5155
g4
I1
sg5
I2
ssVfacebooks
p5156
(dp5157
g4
I1
sg5
I0
ssVngelt
p5158
(dp5159
g4
I0
sg5
I1
ssVangriff
p5160
(dp5161
g4
I0
sg5
I1
ssVkontrolliert
p5162
(dp5163
g4
I1
sg5
I0
ssVprototypen
p5164
(dp5165
g4
I1
sg5
I0
ssVstift
p5166
(dp5167
g4
I0
sg5
I1
ssVbleiben
p5168
(dp5169
g4
I2
sg5
I1
ssVsturmkollege
p5170
(dp5171
g4
I0
sg5
I1
ssVverdanken
p5172
(dp5173
g4
I1
sg5
I0
ssVbeschlossen
p5174
(dp5175
g4
I0
sg5
I1
ssVtextstellen
p5176
(dp5177
g4
I1
sg5
I0
ssVdownload
p5178
(dp5179
g4
I2
sg5
I0
ssVbeseitigt
p5180
(dp5181
g4
I2
sg5
I0
ssVverbreitung
p5182
(dp5183
g4
I1
sg5
I0
ssVglicher
p5184
(dp5185
g4
I0
sg5
I2
ssVindex
p5186
(dp5187
g4
I0
sg5
I1
ssVroboter
p5188
(dp5189
g4
I2
sg5
I0
ssVgesamtperformance
p5190
(dp5191
g4
I1
sg5
I0
ssVpower
p5192
(dp5193
g4
I1
sg5
I0
ssVfirma
p5194
(dp5195
g4
I1
sg5
I0
ssVpolen
p5196
(dp5197
g4
I0
sg5
I2
ssVmultimedia
p5198
(dp5199
g4
I1
sg5
I0
ssVvermeintliche
p5200
(dp5201
g4
I1
sg5
I0
ssVentwicklung
p5202
(dp5203
g4
I2
sg5
I0
ssVglasfaseranschluss
p5204
(dp5205
g4
I1
sg5
I0
ssVhuawei
p5206
(dp5207
g4
I1
sg5
I0
ssVeinige
p5208
(dp5209
g4
I6
sg5
I0
ssVmilliarden
p5210
(dp5211
g4
I0
sg5
I2
ssVrauszuwerfen
p5212
(dp5213
g4
I0
sg5
I1
ssVkauft
p5214
(dp5215
g4
I1
sg5
I0
ssVngers
p5216
(dp5217
g4
I0
sg5
I1
ssVumung
p5218
(dp5219
g4
I0
sg5
I1
ssVerstellen
p5220
(dp5221
g4
I2
sg5
I0
ssVentgegen
p5222
(dp5223
g4
I1
sg5
I0
ssVchinas
p5224
(dp5225
g4
I1
sg5
I0
ssVfrankreich
p5226
(dp5227
g4
I2
sg5
I6
ssVkrise
p5228
(dp5229
g4
I0
sg5
I2
ssVballg
p5230
(dp5231
g4
I0
sg5
I1
ssVbaring
p5232
(dp5233
g4
I1
sg5
I0
ssVenergiesparen
p5234
(dp5235
g4
I0
sg5
I1
ssVler
p5236
(dp5237
g4
I0
sg5
I1
ssVaktionen
p5238
(dp5239
g4
I1
sg5
I0
ssVsexy
p5240
(dp5241
g4
I0
sg5
I1
ssVsind
p5242
(dp5243
g4
I11
sg5
I8
ssVherausgegeben
p5244
(dp5245
g4
I1
sg5
I0
ssVausgabe
p5246
(dp5247
g4
I1
sg5
I0
ssVukraine
p5248
(dp5249
g4
I0
sg5
I4
ssVgreat
p5250
(dp5251
g4
I1
sg5
I0
ssVarchitektur
p5252
(dp5253
g4
I0
sg5
I1
ssVelektronik
p5254
(dp5255
g4
I1
sg5
I0
ssVtrojaner
p5256
(dp5257
g4
I1
sg5
I0
ssVersten
p5258
(dp5259
g4
I3
sg5
I3
ssVrde
p5260
(dp5261
g4
I2
sg5
I0
ssVerstes
p5262
(dp5263
g4
I0
sg5
I1
ssVerster
p5264
(dp5265
g4
I0
sg5
I1
ssVdeveloper
p5266
(dp5267
g4
I1
sg5
I0
ssVcto
p5268
(dp5269
g4
I1
sg5
I0
ssVchtegleichgewicht
p5270
(dp5271
g4
I0
sg5
I1
ssVausgelacht
p5272
(dp5273
g4
I0
sg5
I1
ssVwie
p5274
(dp5275
g4
I12
sg5
I6
ssVfirefox
p5276
(dp5277
g4
I5
sg5
I0
ssVapple
p5278
(dp5279
g4
I10
sg5
I0
ssVauswahl
p5280
(dp5281
g4
I3
sg5
I0
ssVheart
p5282
(dp5283
g4
I1
sg5
I0
ssVnamen
p5284
(dp5285
g4
I1
sg5
I1
ssVeingebautem
p5286
(dp5287
g4
I1
sg5
I0
ssVapp
p5288
(dp5289
g4
I4
sg5
I0
ssVfernsehprogramm
p5290
(dp5291
g4
I0
sg5
I1
ssVmietwohnung
p5292
(dp5293
g4
I0
sg5
I1
ssVbegegnung
p5294
(dp5295
g4
I4
sg5
I0
ssVprivate
p5296
(dp5297
g4
I1
sg5
I0
ssVapu
p5298
(dp5299
g4
I1
sg5
I0
ssVwir
p5300
(dp5301
g4
I22
sg5
I1
ssVrede
p5302
(dp5303
g4
I0
sg5
I1
ssVtrat
p5304
(dp5305
g4
I0
sg5
I1
ssVtools
p5306
(dp5307
g4
I2
sg5
I0
ssVcloud
p5308
(dp5309
g4
I7
sg5
I0
ssVdateien
p5310
(dp5311
g4
I1
sg5
I0
ssVuse
p5312
(dp5313
g4
I2
sg5
I0
ssVche
p5314
(dp5315
g4
I2
sg5
I2
ssVusa
p5316
(dp5317
g4
I3
sg5
I4
ssVtzliche
p5318
(dp5319
g4
I0
sg5
I1
ssVfen
p5320
(dp5321
g4
I0
sg5
I1
ssVbesten
p5322
(dp5323
g4
I7
sg5
I1
ssVgregor
p5324
(dp5325
g4
I0
sg5
I1
ssVdeltaschleifer
p5326
(dp5327
g4
I1
sg5
I0
ssVfilialen
p5328
(dp5329
g4
I3
sg5
I0
ssVnoch
p5330
(dp5331
g4
I11
sg5
I8
ssVcht
p5332
(dp5333
g4
I0
sg5
I2
ssVkonkurrent
p5334
(dp5335
g4
I1
sg5
I0
ssVstarten
p5336
(dp5337
g4
I2
sg5
I0
ssVmietrecht
p5338
(dp5339
g4
I0
sg5
I2
ssVniedrigere
p5340
(dp5341
g4
I1
sg5
I0
ssVosten
p5342
(dp5343
g4
I0
sg5
I2
ssVabgezapfte
p5344
(dp5345
g4
I0
sg5
I1
ssVzusammenspiel
p5346
(dp5347
g4
I1
sg5
I0
ssVisaf
p5348
(dp5349
g4
I0
sg5
I1
ssVbetrugsvorw
p5350
(dp5351
g4
I0
sg5
I1
ssVonedrive
p5352
(dp5353
g4
I1
sg5
I0
ssVkonkurrenz
p5354
(dp5355
g4
I3
sg5
I0
ssVdrehstiften
p5356
(dp5357
g4
I0
sg5
I1
ssVmilliarde
p5358
(dp5359
g4
I0
sg5
I1
ssVstartet
p5360
(dp5361
g4
I2
sg5
I0
ssVvertrauensfrage
p5362
(dp5363
g4
I0
sg5
I1
ssVvirenschutz
p5364
(dp5365
g4
I1
sg5
I0
ssVerung
p5366
(dp5367
g4
I0
sg5
I1
ssVjustin
p5368
(dp5369
g4
I0
sg5
I1
ssVfan
p5370
(dp5371
g4
I0
sg5
I1
ssVglich
p5372
(dp5373
g4
I7
sg5
I1
ssVhielt
p5374
(dp5375
g4
I0
sg5
I1
ssVschaltete
p5376
(dp5377
g4
I0
sg5
I1
ssVunkenrufen
p5378
(dp5379
g4
I1
sg5
I0
ssVlightroom
p5380
(dp5381
g4
I1
sg5
I0
ssVaufrecht
p5382
(dp5383
g4
I1
sg5
I0
ssVpowercolor
p5384
(dp5385
g4
I1
sg5
I0
ssVschnellster
p5386
(dp5387
g4
I1
sg5
I0
ssVsicherheit
p5388
(dp5389
g4
I1
sg5
I0
ssVdirekt
p5390
(dp5391
g4
I0
sg5
I1
ssVfranzosen
p5392
(dp5393
g4
I0
sg5
I3
ssVhrend
p5394
(dp5395
g4
I4
sg5
I1
ssVgeneraldebatte
p5396
(dp5397
g4
I0
sg5
I2
ssVpotenzial
p5398
(dp5399
g4
I0
sg5
I1
ssVtat
p5400
(dp5401
g4
I0
sg5
I1
ssVfeiert
p5402
(dp5403
g4
I1
sg5
I1
ssVfeierw
p5404
(dp5405
g4
I1
sg5
I0
ssVnarren
p5406
(dp5407
g4
I1
sg5
I0
ssVgescheitert
p5408
(dp5409
g4
I0
sg5
I1
ssVkennt
p5410
(dp5411
g4
I1
sg5
I0
ssVlinke
p5412
(dp5413
g4
I0
sg5
I2
ssVprofessor
p5414
(dp5415
g4
I0
sg5
I1
ssVtag
p5416
(dp5417
g4
I2
sg5
I1
ssVzwischen
p5418
(dp5419
g4
I3
sg5
I0
ssVtechnisch
p5420
(dp5421
g4
I1
sg5
I0
ssVstoffe
p5422
(dp5423
g4
I0
sg5
I1
ssVschnelles
p5424
(dp5425
g4
I1
sg5
I0
ssVschneller
p5426
(dp5427
g4
I2
sg5
I0
ssVmalware
p5428
(dp5429
g4
I1
sg5
I0
ssVgratis
p5430
(dp5431
g4
I3
sg5
I0
ssVbedeutung
p5432
(dp5433
g4
I2
sg5
I2
ssVjustiz
p5434
(dp5435
g4
I0
sg5
I1
ssVrkte
p5436
(dp5437
g4
I0
sg5
I1
ssVaff
p5438
(dp5439
g4
I0
sg5
I1
ssVsentieren
p5440
(dp5441
g4
I1
sg5
I0
ssVsie
p5442
(dp5443
g4
I30
sg5
I14
ssVdicke
p5444
(dp5445
g4
I1
sg5
I0
ssVstrafrechtlich
p5446
(dp5447
g4
I0
sg5
I1
ssVziemlich
p5448
(dp5449
g4
I1
sg5
I1
ssVamerika
p5450
(dp5451
g4
I0
sg5
I1
ssVherunterladen
p5452
(dp5453
g4
I3
sg5
I0
ssVwallpaper
p5454
(dp5455
g4
I1
sg5
I0
ssVdrittanbietern
p5456
(dp5457
g4
I1
sg5
I0
ssVfrau
p5458
(dp5459
g4
I1
sg5
I3
ssVnotebook
p5460
(dp5461
g4
I4
sg5
I0
ssVgaben
p5462
(dp5463
g4
I0
sg5
I1
ssVwebanwendungen
p5464
(dp5465
g4
I1
sg5
I0
ssVeher
p5466
(dp5467
g4
I1
sg5
I0
ssVgleicht
p5468
(dp5469
g4
I0
sg5
I1
ssVgigabyte
p5470
(dp5471
g4
I1
sg5
I0
ssVafd
p5472
(dp5473
g4
I0
sg5
I1
ssVfriedensbem
p5474
(dp5475
g4
I0
sg5
I1
ssVagenda
p5476
(dp5477
g4
I1
sg5
I0
ssVehrgeizigere
p5478
(dp5479
g4
I0
sg5
I1
ssVattraktiver
p5480
(dp5481
g4
I1
sg5
I0
ssVgcc
p5482
(dp5483
g4
I1
sg5
I0
ssVklarheit
p5484
(dp5485
g4
I1
sg5
I0
ssVwahlen
p5486
(dp5487
g4
I0
sg5
I1
ssVgeringe
p5488
(dp5489
g4
I0
sg5
I1
ssVamtseinf
p5490
(dp5491
g4
I0
sg5
I1
ssVkonditionen
p5492
(dp5493
g4
I1
sg5
I0
ssVmeter
p5494
(dp5495
g4
I0
sg5
I2
ssVnstige
p5496
(dp5497
g4
I1
sg5
I0
ssVsichtbaren
p5498
(dp5499
g4
I1
sg5
I0
ssVleistungsstarken
p5500
(dp5501
g4
I1
sg5
I0
ssVantoine
p5502
(dp5503
g4
I0
sg5
I1
ssVdoppelpack
p5504
(dp5505
g4
I0
sg5
I1
ssVmenge
p5506
(dp5507
g4
I2
sg5
I0
ssVhoch
p5508
(dp5509
g4
I1
sg5
I0
ssVangebliche
p5510
(dp5511
g4
I1
sg5
I0
ssVwestern
p5512
(dp5513
g4
I0
sg5
I1
ssVnotebooks
p5514
(dp5515
g4
I1
sg5
I0
ssVhligen
p5516
(dp5517
g4
I1
sg5
I0
ssVzehn
p5518
(dp5519
g4
I3
sg5
I1
ssVstigt
p5520
(dp5521
g4
I0
sg5
I1
ssVumsatzes
p5522
(dp5523
g4
I1
sg5
I0
ssVpixel
p5524
(dp5525
g4
I1
sg5
I0
ssVpolitische
p5526
(dp5527
g4
I1
sg5
I1
ssVdaf
p5528
(dp5529
g4
I3
sg5
I1
ssVwaren
p5530
(dp5531
g4
I1
sg5
I1
ssVauto
p5532
(dp5533
g4
I3
sg5
I2
ssVmaterial
p5534
(dp5535
g4
I1
sg5
I0
ssVtoshiba
p5536
(dp5537
g4
I1
sg5
I0
ssVmarktforscher
p5538
(dp5539
g4
I1
sg5
I0
ssVzugeh
p5540
(dp5541
g4
I1
sg5
I0
ssVdoch
p5542
(dp5543
g4
I6
sg5
I6
ssVhandw
p5544
(dp5545
g4
I1
sg5
I0
ssVdar
p5546
(dp5547
g4
I3
sg5
I0
ssVdas
p5548
(dp5549
g4
I65
sg5
I24
ssVnotstandsregierung
p5550
(dp5551
g4
I0
sg5
I1
ssVkostenfalle
p5552
(dp5553
g4
I1
sg5
I0
ssVbesetzten
p5554
(dp5555
g4
I0
sg5
I1
ssVhandy
p5556
(dp5557
g4
I4
sg5
I0
ssVprojekte
p5558
(dp5559
g4
I0
sg5
I1
ssVwarnen
p5560
(dp5561
g4
I0
sg5
I1
ssVnfc
p5562
(dp5563
g4
I1
sg5
I0
ssVprozessor
p5564
(dp5565
g4
I2
sg5
I0
ssVellenbogen
p5566
(dp5567
g4
I0
sg5
I2
ssVeben
p5568
(dp5569
g4
I1
sg5
I0
ssVluna
p5570
(dp5571
g4
I1
sg5
I0
ssVpreisen
p5572
(dp5573
g4
I0
sg5
I1
ssVberliner
p5574
(dp5575
g4
I1
sg5
I0
ssVpeking
p5576
(dp5577
g4
I0
sg5
I1
ssVanzahl
p5578
(dp5579
g4
I1
sg5
I0
ssVprojekts
p5580
(dp5581
g4
I1
sg5
I0
ssVrenner
p5582
(dp5583
g4
I0
sg5
I1
ssVkommt
p5584
(dp5585
g4
I5
sg5
I1
ssVvaliden
p5586
(dp5587
g4
I1
sg5
I0
ssVguten
p5588
(dp5589
g4
I2
sg5
I0
ssVgutem
p5590
(dp5591
g4
I1
sg5
I1
ssVwarten
p5592
(dp5593
g4
I1
sg5
I0
ssVberraschend
p5594
(dp5595
g4
I1
sg5
I0
ssVhlt
p5596
(dp5597
g4
I0
sg5
I1
ssVsteigenden
p5598
(dp5599
g4
I1
sg5
I0
ssVklau
p5600
(dp5601
g4
I0
sg5
I1
ssVliegen
p5602
(dp5603
g4
I1
sg5
I0
ssVguter
p5604
(dp5605
g4
I1
sg5
I0
ssVgutes
p5606
(dp5607
g4
I1
sg5
I0
ssVspecial
p5608
(dp5609
g4
I1
sg5
I0
ssVkritik
p5610
(dp5611
g4
I1
sg5
I2
ssVherausgesucht
p5612
(dp5613
g4
I2
sg5
I0
ssVreflow
p5614
(dp5615
g4
I1
sg5
I0
ssVweimarer
p5616
(dp5617
g4
I0
sg5
I1
ssVvalve
p5618
(dp5619
g4
I1
sg5
I0
ssVjegliche
p5620
(dp5621
g4
I1
sg5
I0
ssVporoschenko
p5622
(dp5623
g4
I0
sg5
I2
ssVwerden
p5624
(dp5625
g4
I12
sg5
I10
ssVerfurt
p5626
(dp5627
g4
I0
sg5
I1
ssVmessenger
p5628
(dp5629
g4
I1
sg5
I0
ssVlehrerin
p5630
(dp5631
g4
I0
sg5
I1
ssVkopien
p5632
(dp5633
g4
I1
sg5
I0
ssVschauspieler
p5634
(dp5635
g4
I0
sg5
I1
ssVwandelt
p5636
(dp5637
g4
I1
sg5
I0
ssVred
p5638
(dp5639
g4
I1
sg5
I0
ssVfokus
p5640
(dp5641
g4
I3
sg5
I0
ssVbilder
p5642
(dp5643
g4
I3
sg5
I0
ssVworkflow
p5644
(dp5645
g4
I1
sg5
I0
ssVbotschaften
p5646
(dp5647
g4
I0
sg5
I1
ssVgeizen
p5648
(dp5649
g4
I1
sg5
I0
ssVtempo
p5650
(dp5651
g4
I1
sg5
I0
ssVermittlungen
p5652
(dp5653
g4
I0
sg5
I1
ssVerfolglosigkeit
p5654
(dp5655
g4
I0
sg5
I1
ssVaufladbaren
p5656
(dp5657
g4
I1
sg5
I0
ssVkollegin
p5658
(dp5659
g4
I0
sg5
I1
ssVkaum
p5660
(dp5661
g4
I2
sg5
I4
ssVbilden
p5662
(dp5663
g4
I1
sg5
I1
ssVkompliziert
p5664
(dp5665
g4
I1
sg5
I0
ssVerntet
p5666
(dp5667
g4
I0
sg5
I1
ssVgeraten
p5668
(dp5669
g4
I0
sg5
I2
ssVpreisvergleich
p5670
(dp5671
g4
I1
sg5
I0
ssVschande
p5672
(dp5673
g4
I0
sg5
I1
ssVstaatliche
p5674
(dp5675
g4
I1
sg5
I0
ssVheraus
p5676
(dp5677
g4
I1
sg5
I0
ssVschuldenfreien
p5678
(dp5679
g4
I0
sg5
I1
ssVforschungsprojekten
p5680
(dp5681
g4
I1
sg5
I0
ssVrdert
p5682
(dp5683
g4
I1
sg5
I0
ssVlandgericht
p5684
(dp5685
g4
I0
sg5
I1
ssVlte
p5686
(dp5687
g4
I5
sg5
I0
ssVdeshalb
p5688
(dp5689
g4
I2
sg5
I2
ssVschadcode
p5690
(dp5691
g4
I1
sg5
I0
ssVpraxis
p5692
(dp5693
g4
I2
sg5
I0
ssVbewerberin
p5694
(dp5695
g4
I0
sg5
I1
ssVstarken
p5696
(dp5697
g4
I1
sg5
I0
ssVgauck
p5698
(dp5699
g4
I0
sg5
I3
ssVindesign
p5700
(dp5701
g4
I1
sg5
I0
ssVihr
p5702
(dp5703
g4
I7
sg5
I2
ssVblogger
p5704
(dp5705
g4
I1
sg5
I0
ssVndig
p5706
(dp5707
g4
I2
sg5
I0
ssVnetzangelegenheiten
p5708
(dp5709
g4
I1
sg5
I0
ssVleica
p5710
(dp5711
g4
I1
sg5
I0
ssVdamit
p5712
(dp5713
g4
I5
sg5
I1
ssVunverst
p5714
(dp5715
g4
I0
sg5
I1
ssVihm
p5716
(dp5717
g4
I0
sg5
I2
ssVstarker
p5718
(dp5719
g4
I0
sg5
I1
ssVerkl
p5720
(dp5721
g4
I1
sg5
I2
ssVsonderlich
p5722
(dp5723
g4
I1
sg5
I0
ssVuscht
p5724
(dp5725
g4
I1
sg5
I0
ssVchinesische
p5726
(dp5727
g4
I2
sg5
I0
ssVsicherheitsbauteil
p5728
(dp5729
g4
I2
sg5
I0
ssVsystem
p5730
(dp5731
g4
I4
sg5
I0
ssVsimulieren
p5732
(dp5733
g4
I1
sg5
I0
ssVfolgt
p5734
(dp5735
g4
I1
sg5
I0
ssVhindukusch
p5736
(dp5737
g4
I0
sg5
I1
ssVgefahr
p5738
(dp5739
g4
I1
sg5
I0
ssVspeicher
p5740
(dp5741
g4
I2
sg5
I0
ssVarbeitspl
p5742
(dp5743
g4
I0
sg5
I1
ssVherrschaft
p5744
(dp5745
g4
I0
sg5
I1
ssVforscher
p5746
(dp5747
g4
I1
sg5
I2
ssVnstigeren
p5748
(dp5749
g4
I0
sg5
I1
ssVschicksal
p5750
(dp5751
g4
I0
sg5
I1
ssVangeboten
p5752
(dp5753
g4
I1
sg5
I0
ssVgear
p5754
(dp5755
g4
I1
sg5
I0
ssVller
p5756
(dp5757
g4
I0
sg5
I1
ssVnstiger
p5758
(dp5759
g4
I3
sg5
I0
ssVjuli
p5760
(dp5761
g4
I2
sg5
I0
ssVeinnahmen
p5762
(dp5763
g4
I0
sg5
I1
ssVangeblich
p5764
(dp5765
g4
I1
sg5
I0
ssVschweizer
p5766
(dp5767
g4
I0
sg5
I2
ssVdiskutieren
p5768
(dp5769
g4
I1
sg5
I0
ssVspiegel
p5770
(dp5771
g4
I2
sg5
I0
ssVude
p5772
(dp5773
g4
I1
sg5
I0
ssVliste
p5774
(dp5775
g4
I1
sg5
I0
ssVdafrikanischer
p5776
(dp5777
g4
I1
sg5
I0
ssVhaupts
p5778
(dp5779
g4
I1
sg5
I0
ssVndnisfall
p5780
(dp5781
g4
I0
sg5
I1
ssVmodernen
p5782
(dp5783
g4
I1
sg5
I0
ssVbeh
p5784
(dp5785
g4
I2
sg5
I1
ssVbei
p5786
(dp5787
g4
I22
sg5
I8
ssVben
p5788
(dp5789
g4
I1
sg5
I1
ssVklickerei
p5790
(dp5791
g4
I1
sg5
I0
ssVgelten
p5792
(dp5793
g4
I2
sg5
I0
ssVbed
p5794
(dp5795
g4
I2
sg5
I0
ssVunterbrochen
p5796
(dp5797
g4
I1
sg5
I0
ssVschetrockners
p5798
(dp5799
g4
I1
sg5
I0
ssVsprachsteuerung
p5800
(dp5801
g4
I1
sg5
I0
ssVerneuerbare
p5802
(dp5803
g4
I0
sg5
I1
ssVverbindet
p5804
(dp5805
g4
I1
sg5
I0
ssVeigentliche
p5806
(dp5807
g4
I1
sg5
I0
ssVare
p5808
(dp5809
g4
I0
sg5
I1
ssVdigitalkamera
p5810
(dp5811
g4
I4
sg5
I0
ssVseinem
p5812
(dp5813
g4
I3
sg5
I0
ssVseinen
p5814
(dp5815
g4
I4
sg5
I1
ssVtabakqualm
p5816
(dp5817
g4
I0
sg5
I1
ssVabsurder
p5818
(dp5819
g4
I0
sg5
I1
ssVbesatzerstaat
p5820
(dp5821
g4
I0
sg5
I1
ssVgelatiere
p5822
(dp5823
g4
I0
sg5
I1
ssVringen
p5824
(dp5825
g4
I0
sg5
I1
ssVvorheriger
p5826
(dp5827
g4
I1
sg5
I0
ssVklamotte
p5828
(dp5829
g4
I1
sg5
I0
ssVanteil
p5830
(dp5831
g4
I0
sg5
I1
ssVseiner
p5832
(dp5833
g4
I3
sg5
I3
ssVpaperwhite
p5834
(dp5835
g4
I1
sg5
I0
ssVvorfall
p5836
(dp5837
g4
I0
sg5
I1
ssVcomics
p5838
(dp5839
g4
I0
sg5
I1
ssVdrucker
p5840
(dp5841
g4
I4
sg5
I1
ssVexperten
p5842
(dp5843
g4
I0
sg5
I1
ssVeinfach
p5844
(dp5845
g4
I4
sg5
I0
ssVmissachtung
p5846
(dp5847
g4
I0
sg5
I1
ssVleidige
p5848
(dp5849
g4
I0
sg5
I1
ssVausgebeutet
p5850
(dp5851
g4
I0
sg5
I1
ssVabgeh
p5852
(dp5853
g4
I0
sg5
I1
ssVmarkierten
p5854
(dp5855
g4
I1
sg5
I0
ssVdrucken
p5856
(dp5857
g4
I1
sg5
I0
ssVmit
p5858
(dp5859
g4
I68
sg5
I25
ssVberall
p5860
(dp5861
g4
I2
sg5
I0
ssVvormarsch
p5862
(dp5863
g4
I0
sg5
I1
ssVkonom
p5864
(dp5865
g4
I0
sg5
I1
ssVdatenknotenpunkt
p5866
(dp5867
g4
I1
sg5
I0
ssVpresseverlage
p5868
(dp5869
g4
I1
sg5
I0
ssVkarrierechance
p5870
(dp5871
g4
I1
sg5
I0
ssVhilfreiche
p5872
(dp5873
g4
I1
sg5
I1
ssVbel
p5874
(dp5875
g4
I0
sg5
I2
ssVkitkat
p5876
(dp5877
g4
I1
sg5
I0
ssVoffene
p5878
(dp5879
g4
I0
sg5
I1
ssVnderungen
p5880
(dp5881
g4
I3
sg5
I0
ssVberwachungs
p5882
(dp5883
g4
I1
sg5
I0
ssVprozessorkernen
p5884
(dp5885
g4
I1
sg5
I0
ssVsegment
p5886
(dp5887
g4
I1
sg5
I0
ssVhilferufe
p5888
(dp5889
g4
I0
sg5
I1
ssVcke
p5890
(dp5891
g4
I3
sg5
I0
ssVnordfriesland
p5892
(dp5893
g4
I1
sg5
I0
ssVsteren
p5894
(dp5895
g4
I0
sg5
I1
ssVbeziehen
p5896
(dp5897
g4
I1
sg5
I0
ssVschule
p5898
(dp5899
g4
I0
sg5
I1
ssVberbieten
p5900
(dp5901
g4
I1
sg5
I0
ssVakoya
p5902
(dp5903
g4
I2
sg5
I0
ssVckt
p5904
(dp5905
g4
I0
sg5
I1
ssVaktualisiert
p5906
(dp5907
g4
I2
sg5
I0
ssVdenn
p5908
(dp5909
g4
I2
sg5
I1
ssVwichtigen
p5910
(dp5911
g4
I2
sg5
I1
ssVskunk
p5912
(dp5913
g4
I1
sg5
I0
ssVkehrtwendung
p5914
(dp5915
g4
I1
sg5
I0
ssVneuerung
p5916
(dp5917
g4
I1
sg5
I0
ssVpresseverleger
p5918
(dp5919
g4
I1
sg5
I0
ssVgeheimdienst
p5920
(dp5921
g4
I0
sg5
I1
ssVstehen
p5922
(dp5923
g4
I3
sg5
I1
ssVschwappt
p5924
(dp5925
g4
I1
sg5
I0
ssVcharles
p5926
(dp5927
g4
I1
sg5
I0
ssVdbg
p5928
(dp5929
g4
I1
sg5
I0
ssVkontrolle
p5930
(dp5931
g4
I3
sg5
I0
ssVtarif
p5932
(dp5933
g4
I1
sg5
I0
ssVkopiert
p5934
(dp5935
g4
I1
sg5
I0
ssVrdermilliarden
p5936
(dp5937
g4
I0
sg5
I1
ssVportfolio
p5938
(dp5939
g4
I1
sg5
I0
ssVnchens
p5940
(dp5941
g4
I0
sg5
I1
ssVrubrik
p5942
(dp5943
g4
I2
sg5
I0
ssVinternetkonzern
p5944
(dp5945
g4
I1
sg5
I0
ssVnachrichten
p5946
(dp5947
g4
I1
sg5
I0
ssVmagine
p5948
(dp5949
g4
I1
sg5
I0
ssVtreppenhaus
p5950
(dp5951
g4
I0
sg5
I1
ssVkontert
p5952
(dp5953
g4
I1
sg5
I0
ssVfans
p5954
(dp5955
g4
I0
sg5
I1
ssVngt
p5956
(dp5957
g4
I0
sg5
I2
ssVkartellbeschwerde
p5958
(dp5959
g4
I2
sg5
I0
ssVtodeskandidaten
p5960
(dp5961
g4
I0
sg5
I2
ssVpartnern
p5962
(dp5963
g4
I0
sg5
I1
ssVerhalten
p5964
(dp5965
g4
I1
sg5
I0
ssVerheblicher
p5966
(dp5967
g4
I0
sg5
I1
ssVeinsatz
p5968
(dp5969
g4
I2
sg5
I2
ssVrgen
p5970
(dp5971
g4
I0
sg5
I2
ssVmobilfunk
p5972
(dp5973
g4
I4
sg5
I0
ssVneuste
p5974
(dp5975
g4
I2
sg5
I0
ssVpassend
p5976
(dp5977
g4
I1
sg5
I0
ssVstaats
p5978
(dp5979
g4
I1
sg5
I0
ssVrger
p5980
(dp5981
g4
I0
sg5
I5
ssVetwa
p5982
(dp5983
g4
I1
sg5
I0
ssVschickt
p5984
(dp5985
g4
I0
sg5
I1
ssVaufruhr
p5986
(dp5987
g4
I1
sg5
I0
ssVchips
p5988
(dp5989
g4
I1
sg5
I0
ssVlschung
p5990
(dp5991
g4
I1
sg5
I0
ssVpsychothriller
p5992
(dp5993
g4
I0
sg5
I1
ssVvergangenheit
p5994
(dp5995
g4
I1
sg5
I1
ssVideologische
p5996
(dp5997
g4
I0
sg5
I1
ssVviel
p5998
(dp5999
g4
I2
sg5
I6
ssVkeiner
p6000
(dp6001
g4
I0
sg5
I1
ssVpartie
p6002
(dp6003
g4
I3
sg5
I0
ssVngig
p6004
(dp6005
g4
I1
sg5
I1
ssVkonvertieren
p6006
(dp6007
g4
I1
sg5
I0
ssVriesenspeicher
p6008
(dp6009
g4
I1
sg5
I0
ssVhochstapler
p6010
(dp6011
g4
I0
sg5
I1
ssVstimmen
p6012
(dp6013
g4
I0
sg5
I1
ssVfelipe
p6014
(dp6015
g4
I0
sg5
I1
ssVreif
p6016
(dp6017
g4
I1
sg5
I0
ssVaufregung
p6018
(dp6019
g4
I0
sg5
I1
ssVaeg
p6020
(dp6021
g4
I2
sg5
I0
ssVmercedes
p6022
(dp6023
g4
I1
sg5
I0
ssVvier
p6024
(dp6025
g4
I1
sg5
I1
ssVbefragt
p6026
(dp6027
g4
I0
sg5
I1
ssVview
p6028
(dp6029
g4
I1
sg5
I0
ssVhilft
p6030
(dp6031
g4
I0
sg5
I1
ssVkarten
p6032
(dp6033
g4
I3
sg5
I0
ssVgefallen
p6034
(dp6035
g4
I2
sg5
I0
ssVgooglement
p6036
(dp6037
g4
I0
sg5
I1
ssVverheerende
p6038
(dp6039
g4
I0
sg5
I1
ssVsetzen
p6040
(dp6041
g4
I2
sg5
I2
ssVdfb
p6042
(dp6043
g4
I0
sg5
I1
ssVumstiegsszenario
p6044
(dp6045
g4
I1
sg5
I0
ssVkonferenz
p6046
(dp6047
g4
I2
sg5
I0
ssVbessere
p6048
(dp6049
g4
I1
sg5
I0
ssVkriminellen
p6050
(dp6051
g4
I0
sg5
I1
ssVhilfe
p6052
(dp6053
g4
I0
sg5
I1
ssVneben
p6054
(dp6055
g4
I4
sg5
I0
ssVentstand
p6056
(dp6057
g4
I1
sg5
I0
ssVauseinander
p6058
(dp6059
g4
I0
sg5
I1
ssVcomputex
p6060
(dp6061
g4
I1
sg5
I0
ssVufigsten
p6062
(dp6063
g4
I1
sg5
I0
ssVsimplelocker
p6064
(dp6065
g4
I1
sg5
I0
ssVbessert
p6066
(dp6067
g4
I1
sg5
I0
ssVhaushalt
p6068
(dp6069
g4
I0
sg5
I1
ssVwird
p6070
(dp6071
g4
I13
sg5
I9
ssVstatt
p6072
(dp6073
g4
I1
sg5
I0
ssVreform
p6074
(dp6075
g4
I0
sg5
I2
ssVpate
p6076
(dp6077
g4
I0
sg5
I2
ssVdreierpacks
p6078
(dp6079
g4
I0
sg5
I1
ssVmobildruckstandards
p6080
(dp6081
g4
I1
sg5
I0
ssVinfografik
p6082
(dp6083
g4
I0
sg5
I2
ssVgalaxy
p6084
(dp6085
g4
I2
sg5
I0
ssVprogress
p6086
(dp6087
g4
I1
sg5
I0
ssVverhindern
p6088
(dp6089
g4
I0
sg5
I1
ssVbildstrecke
p6090
(dp6091
g4
I0
sg5
I2
ssVflickt
p6092
(dp6093
g4
I1
sg5
I0
ssVwellen
p6094
(dp6095
g4
I1
sg5
I0
ssVkeynote
p6096
(dp6097
g4
I2
sg5
I0
ssVerdogan
p6098
(dp6099
g4
I0
sg5
I1
ssVhrende
p6100
(dp6101
g4
I0
sg5
I1
ssVlohnt
p6102
(dp6103
g4
I1
sg5
I0
ssVende
p6104
(dp6105
g4
I5
sg5
I1
ssVsparhandy
p6106
(dp6107
g4
I1
sg5
I0
ssVjahrelang
p6108
(dp6109
g4
I1
sg5
I1
ssVhilfsmittel
p6110
(dp6111
g4
I1
sg5
I0
ssVgroup
p6112
(dp6113
g4
I1
sg5
I0
ssVsparen
p6114
(dp6115
g4
I1
sg5
I1
ssVinstant
p6116
(dp6117
g4
I1
sg5
I0
ssVtiert
p6118
(dp6119
g4
I1
sg5
I0
ssVhrige
p6120
(dp6121
g4
I1
sg5
I0
ssVfeuerpause
p6122
(dp6123
g4
I0
sg5
I1
ssVdruc
p6124
(dp6125
g4
I1
sg5
I0
ssVfeinde
p6126
(dp6127
g4
I0
sg5
I1
ssVdisplay
p6128
(dp6129
g4
I5
sg5
I1
ssVflott
p6130
(dp6131
g4
I1
sg5
I0
ssVapril
p6132
(dp6133
g4
I2
sg5
I0
ssVvoller
p6134
(dp6135
g4
I1
sg5
I0
ssVgleichen
p6136
(dp6137
g4
I1
sg5
I0
ssVstreams
p6138
(dp6139
g4
I2
sg5
I0
ssVmassenansammlungen
p6140
(dp6141
g4
I1
sg5
I0
ssVfahrverboten
p6142
(dp6143
g4
I0
sg5
I2
ssVgespart
p6144
(dp6145
g4
I1
sg5
I0
ssVbenzema
p6146
(dp6147
g4
I0
sg5
I1
ssVhrten
p6148
(dp6149
g4
I1
sg5
I0
ssVsuchen
p6150
(dp6151
g4
I1
sg5
I0
ssVaktuelle
p6152
(dp6153
g4
I2
sg5
I0
ssVrechtlichen
p6154
(dp6155
g4
I1
sg5
I0
ssVgroben
p6156
(dp6157
g4
I1
sg5
I0
ssVmittagszeit
p6158
(dp6159
g4
I0
sg5
I1
ssVparlament
p6160
(dp6161
g4
I0
sg5
I3
ssVwall
p6162
(dp6163
g4
I1
sg5
I0
ssVsslern
p6164
(dp6165
g4
I0
sg5
I1
ssVbegehbare
p6166
(dp6167
g4
I1
sg5
I0
ssVfakten
p6168
(dp6169
g4
I2
sg5
I0
ssVmusikspeicherdienst
p6170
(dp6171
g4
I1
sg5
I0
ssVgesprochen
p6172
(dp6173
g4
I1
sg5
I0
ssVglatt
p6174
(dp6175
g4
I1
sg5
I0
ssVklare
p6176
(dp6177
g4
I0
sg5
I1
ssVfpgas
p6178
(dp6179
g4
I1
sg5
I0
ssVsparpotential
p6180
(dp6181
g4
I1
sg5
I0
ssVpin
p6182
(dp6183
g4
I0
sg5
I1
ssVerlebt
p6184
(dp6185
g4
I1
sg5
I0
ssVrprotokolle
p6186
(dp6187
g4
I0
sg5
I1
ssVwillk
p6188
(dp6189
g4
I0
sg5
I1
ssVstumpfen
p6190
(dp6191
g4
I0
sg5
I1
ssVmittelpunkt
p6192
(dp6193
g4
I1
sg5
I0
ssVpraktische
p6194
(dp6195
g4
I1
sg5
I0
ssVgeneral
p6196
(dp6197
g4
I0
sg5
I2
ssVspektakel
p6198
(dp6199
g4
I0
sg5
I1
ssVwurde
p6200
(dp6201
g4
I3
sg5
I2
ssVhmt
p6202
(dp6203
g4
I1
sg5
I1
ssVaufstand
p6204
(dp6205
g4
I0
sg5
I1
ssVngigen
p6206
(dp6207
g4
I1
sg5
I0
ssVbesonderen
p6208
(dp6209
g4
I0
sg5
I1
ssVuns
p6210
(dp6211
g4
I2
sg5
I1
ssVheftiger
p6212
(dp6213
g4
I0
sg5
I1
ssVspricht
p6214
(dp6215
g4
I1
sg5
I2
ssVngnis
p6216
(dp6217
g4
I0
sg5
I2
ssVselten
p6218
(dp6219
g4
I1
sg5
I0
ssVweltkulturerbe
p6220
(dp6221
g4
I0
sg5
I1
ssVwzor
p6222
(dp6223
g4
I1
sg5
I0
ssVmaus
p6224
(dp6225
g4
I1
sg5
I1
ssVsmartphones
p6226
(dp6227
g4
I5
sg5
I2
ssVprodukte
p6228
(dp6229
g4
I3
sg5
I0
ssVwachsender
p6230
(dp6231
g4
I1
sg5
I0
ssVklinikum
p6232
(dp6233
g4
I0
sg5
I1
ssVwill
p6234
(dp6235
g4
I5
sg5
I13
ssVsseldorfer
p6236
(dp6237
g4
I0
sg5
I1
ssVfinanzinvestor
p6238
(dp6239
g4
I1
sg5
I0
ssVexterne
p6240
(dp6241
g4
I1
sg5
I0
ssVultra
p6242
(dp6243
g4
I1
sg5
I0
ssVinteressierten
p6244
(dp6245
g4
I1
sg5
I0
ssVstromtrasse
p6246
(dp6247
g4
I0
sg5
I1
ssVhdtv
p6248
(dp6249
g4
I1
sg5
I0
ssVdokumentieren
p6250
(dp6251
g4
I0
sg5
I1
ssVverteilt
p6252
(dp6253
g4
I2
sg5
I0
ssVrtig
p6254
(dp6255
g4
I1
sg5
I1
ssVziehen
p6256
(dp6257
g4
I0
sg5
I2
ssVhardware
p6258
(dp6259
g4
I3
sg5
I0
ssVwirbt
p6260
(dp6261
g4
I0
sg5
I4
ssVleders
p6262
(dp6263
g4
I3
sg5
I0
ssVdual
p6264
(dp6265
g4
I1
sg5
I0
ssVgeschwindigkeit
p6266
(dp6267
g4
I2
sg5
I0
ssVpartner
p6268
(dp6269
g4
I2
sg5
I0
ssVgenug
p6270
(dp6271
g4
I1
sg5
I0
ssVmozillas
p6272
(dp6273
g4
I1
sg5
I0
ssVstarcraft
p6274
(dp6275
g4
I1
sg5
I0
ssVsowie
p6276
(dp6277
g4
I2
sg5
I0
ssVjapaner
p6278
(dp6279
g4
I1
sg5
I0
ssVstuttgart
p6280
(dp6281
g4
I0
sg5
I1
ssVgreifen
p6282
(dp6283
g4
I1
sg5
I0
ssVikeahackers
p6284
(dp6285
g4
I1
sg5
I0
ssVspitzenposition
p6286
(dp6287
g4
I1
sg5
I0
ssVhandwerk
p6288
(dp6289
g4
I1
sg5
I0
ssVwolfgang
p6290
(dp6291
g4
I0
sg5
I1
ssVwelche
p6292
(dp6293
g4
I2
sg5
I0
ssVandroid
p6294
(dp6295
g4
I21
sg5
I1
ssVrfen
p6296
(dp6297
g4
I0
sg5
I2
ssVgezogen
p6298
(dp6299
g4
I0
sg5
I1
ssVtabellenrechner
p6300
(dp6301
g4
I1
sg5
I0
ssVhttp
p6302
(dp6303
g4
I1
sg5
I0
ssVrettet
p6304
(dp6305
g4
I0
sg5
I1
ssVbald
p6306
(dp6307
g4
I4
sg5
I1
ssVios
p6308
(dp6309
g4
I1
sg5
I0
ssVnightly
p6310
(dp6311
g4
I1
sg5
I0
ssVstudent
p6312
(dp6313
g4
I1
sg5
I0
ssVtranssexuelle
p6314
(dp6315
g4
I0
sg5
I1
ssVikea
p6316
(dp6317
g4
I1
sg5
I0
ssVretten
p6318
(dp6319
g4
I0
sg5
I2
ssValleine
p6320
(dp6321
g4
I1
sg5
I1
ssVempfehlungen
p6322
(dp6323
g4
I1
sg5
I0
ssVnachrichtenagentur
p6324
(dp6325
g4
I1
sg5
I0
ssVsoviel
p6326
(dp6327
g4
I1
sg5
I0
ssVkostenlosen
p6328
(dp6329
g4
I2
sg5
I0
ssVintiative
p6330
(dp6331
g4
I1
sg5
I0
ssVtheodor
p6332
(dp6333
g4
I0
sg5
I1
ssVernsthafte
p6334
(dp6335
g4
I2
sg5
I0
ssVsche
p6336
(dp6337
g4
I1
sg5
I1
ssVwelt
p6338
(dp6339
g4
I5
sg5
I0
ssVpersonalpaket
p6340
(dp6341
g4
I0
sg5
I1
ssVoft
p6342
(dp6343
g4
I2
sg5
I1
ssVschn
p6344
(dp6345
g4
I7
sg5
I1
ssVschm
p6346
(dp6347
g4
I0
sg5
I2
ssVstauraum
p6348
(dp6349
g4
I1
sg5
I0
ssVlaufende
p6350
(dp6351
g4
I1
sg5
I0
ssVtaskleiste
p6352
(dp6353
g4
I1
sg5
I0
ssVmfc
p6354
(dp6355
g4
I1
sg5
I0
ssVstores
p6356
(dp6357
g4
I1
sg5
I0
ssVsselt
p6358
(dp6359
g4
I1
sg5
I0
ssVtrojaners
p6360
(dp6361
g4
I1
sg5
I0
ssVlivewire
p6362
(dp6363
g4
I1
sg5
I0
ssVberufung
p6364
(dp6365
g4
I0
sg5
I1
ssVllig
p6366
(dp6367
g4
I1
sg5
I1
ssVglichkeiten
p6368
(dp6369
g4
I5
sg5
I2
ssVhinrichtungen
p6370
(dp6371
g4
I0
sg5
I1
ssVnigt
p6372
(dp6373
g4
I0
sg5
I1
ssVlahmt
p6374
(dp6375
g4
I1
sg5
I0
ssVwarmwasser
p6376
(dp6377
g4
I2
sg5
I0
ssVbefragungen
p6378
(dp6379
g4
I0
sg5
I1
ssVgeschossen
p6380
(dp6381
g4
I1
sg5
I1
ssVbildschirmdiagonale
p6382
(dp6383
g4
I1
sg5
I0
ssVweb
p6384
(dp6385
g4
I5
sg5
I0
ssVschicksalsfrage
p6386
(dp6387
g4
I0
sg5
I1
ssVweg
p6388
(dp6389
g4
I1
sg5
I0
ssVkampf
p6390
(dp6391
g4
I3
sg5
I1
ssVgelockerte
p6392
(dp6393
g4
I0
sg5
I2
ssVwei
p6394
(dp6395
g4
I0
sg5
I1
ssVwem
p6396
(dp6397
g4
I1
sg5
I1
ssVvogts
p6398
(dp6399
g4
I0
sg5
I1
ssVgleich
p6400
(dp6401
g4
I1
sg5
I0
ssVwer
p6402
(dp6403
g4
I4
sg5
I3
ssVgmx
p6404
(dp6405
g4
I2
sg5
I0
ssVnato
p6406
(dp6407
g4
I0
sg5
I1
ssVcitizen
p6408
(dp6409
g4
I1
sg5
I0
ssVentwickelt
p6410
(dp6411
g4
I3
sg5
I0
ssVgute
p6412
(dp6413
g4
I3
sg5
I1
ssVmatch
p6414
(dp6415
g4
I1
sg5
I0
ssVdetails
p6416
(dp6417
g4
I1
sg5
I0
ssVwichtigsten
p6418
(dp6419
g4
I3
sg5
I3
ssVmmern
p6420
(dp6421
g4
I0
sg5
I1
ssVbundespr
p6422
(dp6423
g4
I0
sg5
I3
ssVsubversiv
p6424
(dp6425
g4
I0
sg5
I1
ssVnebensache
p6426
(dp6427
g4
I1
sg5
I0
ssVgerichtsinstanz
p6428
(dp6429
g4
I0
sg5
I1
ssVerpresser
p6430
(dp6431
g4
I1
sg5
I2
ssVsiemens
p6432
(dp6433
g4
I1
sg5
I0
ssVargentinien
p6434
(dp6435
g4
I0
sg5
I3
ssVknox
p6436
(dp6437
g4
I1
sg5
I0
ssVeffizienz
p6438
(dp6439
g4
I1
sg5
I0
ssVdraht
p6440
(dp6441
g4
I1
sg5
I0
ssVmotorola
p6442
(dp6443
g4
I2
sg5
I0
ssVpreisersparnis
p6444
(dp6445
g4
I1
sg5
I0
ssVprospekt
p6446
(dp6447
g4
I2
sg5
I0
ssVdennoch
p6448
(dp6449
g4
I2
sg5
I1
ssVeinzusetzen
p6450
(dp6451
g4
I1
sg5
I0
ssVbremst
p6452
(dp6453
g4
I1
sg5
I0
ssVgddr
p6454
(dp6455
g4
I1
sg5
I0
ssVmhz
p6456
(dp6457
g4
I1
sg5
I0
ssVjedoch
p6458
(dp6459
g4
I1
sg5
I1
ssVrote
p6460
(dp6461
g4
I0
sg5
I1
ssVlager
p6462
(dp6463
g4
I1
sg5
I0
ssVkonomischen
p6464
(dp6465
g4
I0
sg5
I1
ssVwegen
p6466
(dp6467
g4
I1
sg5
I6
ssVgenau
p6468
(dp6469
g4
I2
sg5
I0
ssVwarmen
p6470
(dp6471
g4
I1
sg5
I0
ssVtwitter
p6472
(dp6473
g4
I1
sg5
I0
ssVjubeln
p6474
(dp6475
g4
I0
sg5
I1
ssVanalysiert
p6476
(dp6477
g4
I1
sg5
I0
ssVhandelt
p6478
(dp6479
g4
I1
sg5
I0
ssVbezieht
p6480
(dp6481
g4
I2
sg5
I0
ssVdankbar
p6482
(dp6483
g4
I1
sg5
I0
ssVhome
p6484
(dp6485
g4
I1
sg5
I0
ssVweltmeisterschaft
p6486
(dp6487
g4
I1
sg5
I2
ssVnokia
p6488
(dp6489
g4
I2
sg5
I0
ssVflexibel
p6490
(dp6491
g4
I0
sg5
I1
ssVzwei
p6492
(dp6493
g4
I2
sg5
I4
ssVkleinen
p6494
(dp6495
g4
I1
sg5
I0
ssVkleinem
p6496
(dp6497
g4
I1
sg5
I0
ssVstieg
p6498
(dp6499
g4
I1
sg5
I0
ssVkleines
p6500
(dp6501
g4
I2
sg5
I0
ssVgoldenes
p6502
(dp6503
g4
I0
sg5
I1
ssVkooperiert
p6504
(dp6505
g4
I1
sg5
I0
ssVzuhause
p6506
(dp6507
g4
I1
sg5
I0
ssVhose
p6508
(dp6509
g4
I1
sg5
I0
ssVautonomen
p6510
(dp6511
g4
I1
sg5
I0
ssVcatrin
p6512
(dp6513
g4
I0
sg5
I1
ssVjournal
p6514
(dp6515
g4
I1
sg5
I0
ssVzeiten
p6516
(dp6517
g4
I1
sg5
I0
ssVmannschaft
p6518
(dp6519
g4
I0
sg5
I1
ssVoben
p6520
(dp6521
g4
I1
sg5
I0
ssVglichen
p6522
(dp6523
g4
I1
sg5
I0
ssVpilotenausbildung
p6524
(dp6525
g4
I0
sg5
I1
ssVabgespeckten
p6526
(dp6527
g4
I1
sg5
I0
ssVkoalition
p6528
(dp6529
g4
I0
sg5
I2
ssVknackt
p6530
(dp6531
g4
I1
sg5
I0
ssVnordkorea
p6532
(dp6533
g4
I0
sg5
I1
ssVsocket
p6534
(dp6535
g4
I1
sg5
I0
ssVottmar
p6536
(dp6537
g4
I0
sg5
I2
ssVdiktieren
p6538
(dp6539
g4
I1
sg5
I0
ssVverschlepptes
p6540
(dp6541
g4
I0
sg5
I1
ssVnde
p6542
(dp6543
g4
I1
sg5
I0
ssVchstes
p6544
(dp6545
g4
I1
sg5
I0
ssVunion
p6546
(dp6547
g4
I0
sg5
I3
ssVrskandals
p6548
(dp6549
g4
I0
sg5
I1
ssVchsten
p6550
(dp6551
g4
I5
sg5
I1
ssVhier
p6552
(dp6553
g4
I6
sg5
I0
ssVsoftware
p6554
(dp6555
g4
I11
sg5
I1
ssVgegeben
p6556
(dp6557
g4
I2
sg5
I1
ssVgrenztruppen
p6558
(dp6559
g4
I0
sg5
I1
ssVeins
p6560
(dp6561
g4
I0
sg5
I1
ssVaufgetaucht
p6562
(dp6563
g4
I1
sg5
I1
ssVbericht
p6564
(dp6565
g4
I1
sg5
I0
ssVbrust
p6566
(dp6567
g4
I1
sg5
I0
ssVschwirrt
p6568
(dp6569
g4
I1
sg5
I0
ssVwashington
p6570
(dp6571
g4
I1
sg5
I0
ssVwolle
p6572
(dp6573
g4
I1
sg5
I0
ssVsmarte
p6574
(dp6575
g4
I1
sg5
I0
ssVallnet
p6576
(dp6577
g4
I1
sg5
I0
ssVeine
p6578
(dp6579
g4
I33
sg5
I23
ssVscharfe
p6580
(dp6581
g4
I1
sg5
I0
ssVversorgt
p6582
(dp6583
g4
I0
sg5
I1
ssVpalette
p6584
(dp6585
g4
I1
sg5
I0
ssVtermine
p6586
(dp6587
g4
I0
sg5
I1
ssVprivater
p6588
(dp6589
g4
I1
sg5
I0
ssVgruppe
p6590
(dp6591
g4
I0
sg5
I1
ssVlegends
p6592
(dp6593
g4
I1
sg5
I0
ssVgabelstaplern
p6594
(dp6595
g4
I1
sg5
I0
ssVapps
p6596
(dp6597
g4
I7
sg5
I0
ssVsohlen
p6598
(dp6599
g4
I0
sg5
I1
ssVrenommierte
p6600
(dp6601
g4
I0
sg5
I1
ssVngjang
p6602
(dp6603
g4
I0
sg5
I1
ssVarge
p6604
(dp6605
g4
I0
sg5
I1
ssVschielt
p6606
(dp6607
g4
I1
sg5
I0
ssVxperia
p6608
(dp6609
g4
I1
sg5
I0
ssVkauftipps
p6610
(dp6611
g4
I1
sg5
I0
ssVechtes
p6612
(dp6613
g4
I1
sg5
I0
ssVechter
p6614
(dp6615
g4
I1
sg5
I0
ssVbananenkakao
p6616
(dp6617
g4
I0
sg5
I1
ssVxinhua
p6618
(dp6619
g4
I1
sg5
I0
ssVmeldet
p6620
(dp6621
g4
I1
sg5
I0
ssVbereiche
p6622
(dp6623
g4
I0
sg5
I1
ssVkraft
p6624
(dp6625
g4
I0
sg5
I1
ssVfrauenquote
p6626
(dp6627
g4
I0
sg5
I1
ssVmade
p6628
(dp6629
g4
I1
sg5
I0
ssVkarte
p6630
(dp6631
g4
I1
sg5
I0
ssVseit
p6632
(dp6633
g4
I9
sg5
I3
ssVabuja
p6634
(dp6635
g4
I0
sg5
I1
ssVangela
p6636
(dp6637
g4
I0
sg5
I2
ssValltag
p6638
(dp6639
g4
I0
sg5
I1
ssVhrlichste
p6640
(dp6641
g4
I0
sg5
I1
ssVrften
p6642
(dp6643
g4
I2
sg5
I0
ssVzufolge
p6644
(dp6645
g4
I1
sg5
I1
ssVdisplayeinheit
p6646
(dp6647
g4
I1
sg5
I0
ssVausstattung
p6648
(dp6649
g4
I6
sg5
I0
ssVhrerschein
p6650
(dp6651
g4
I0
sg5
I1
ssVhand
p6652
(dp6653
g4
I0
sg5
I1
ssVproblem
p6654
(dp6655
g4
I0
sg5
I1
ssVvereinte
p6656
(dp6657
g4
I0
sg5
I1
ssVsein
p6658
(dp6659
g4
I11
sg5
I7
ssVdavon
p6660
(dp6661
g4
I1
sg5
I0
ssVtreten
p6662
(dp6663
g4
I1
sg5
I0
ssVstartmen
p6664
(dp6665
g4
I1
sg5
I0
ssVsanktionsliste
p6666
(dp6667
g4
I0
sg5
I1
ssVbraucht
p6668
(dp6669
g4
I1
sg5
I1
ssVentmietung
p6670
(dp6671
g4
I1
sg5
I0
ssVdauer
p6672
(dp6673
g4
I1
sg5
I0
ssVins
p6674
(dp6675
g4
I4
sg5
I3
ssVproblemen
p6676
(dp6677
g4
I1
sg5
I0
ssVpiz
p6678
(dp6679
g4
I1
sg5
I0
ssVbeginnen
p6680
(dp6681
g4
I0
sg5
I1
ssVheimat
p6682
(dp6683
g4
I0
sg5
I1
ssVveralteter
p6684
(dp6685
g4
I1
sg5
I0
ssVspeicherplatz
p6686
(dp6687
g4
I1
sg5
I0
ssVbeschwert
p6688
(dp6689
g4
I1
sg5
I0
ssVlligste
p6690
(dp6691
g4
I1
sg5
I0
ssVbrandenburg
p6692
(dp6693
g4
I0
sg5
I1
ssVdetail
p6694
(dp6695
g4
I1
sg5
I0
ssVbook
p6696
(dp6697
g4
I1
sg5
I0
ssVsich
p6698
(dp6699
g4
I38
sg5
I16
ssVhpc
p6700
(dp6701
g4
I1
sg5
I0
ssVauftritt
p6702
(dp6703
g4
I0
sg5
I1
ssVjuni
p6704
(dp6705
g4
I5
sg5
I0
ssVmultifunktionsger
p6706
(dp6707
g4
I1
sg5
I0
ssVstar
p6708
(dp6709
g4
I0
sg5
I1
ssVpolizei
p6710
(dp6711
g4
I1
sg5
I0
ssVgruppensieg
p6712
(dp6713
g4
I0
sg5
I2
ssVprozent
p6714
(dp6715
g4
I2
sg5
I1
ssVgas
p6716
(dp6717
g4
I0
sg5
I1
ssVspielt
p6718
(dp6719
g4
I0
sg5
I1
ssVzecken
p6720
(dp6721
g4
I0
sg5
I1
ssVdatenverkehrs
p6722
(dp6723
g4
I1
sg5
I0
ssVdatenbrillen
p6724
(dp6725
g4
I0
sg5
I1
ssVspiele
p6726
(dp6727
g4
I3
sg5
I0
ssVtasse
p6728
(dp6729
g4
I0
sg5
I1
ssVtter
p6730
(dp6731
g4
I0
sg5
I1
ssVimpfung
p6732
(dp6733
g4
I0
sg5
I1
ssVhne
p6734
(dp6735
g4
I1
sg5
I0
ssVsamsung
p6736
(dp6737
g4
I6
sg5
I0
ssVniveau
p6738
(dp6739
g4
I1
sg5
I0
ssVinsel
p6740
(dp6741
g4
I1
sg5
I0
ssVeindeutig
p6742
(dp6743
g4
I0
sg5
I1
ssVallein
p6744
(dp6745
g4
I1
sg5
I1
ssVtrotzdem
p6746
(dp6747
g4
I1
sg5
I2
ssVfrankfurt
p6748
(dp6749
g4
I1
sg5
I2
ssVtten
p6750
(dp6751
g4
I1
sg5
I0
ssVjawbone
p6752
(dp6753
g4
I1
sg5
I0
sssb.