(idocclass
Classifier
p0
(dp1
S'classes'
p2
(lp3
S'tech'
p4
aS'nontech'
p5
asS'cc'
p6
(dp7
g4
I4959
sg5
I2761
ssS'getfeatures'
p8
cdocclass
getwords
p9
sS'fc'
p10
(dp11
Vberblick
p12
(dp13
g4
I1
sg5
I0
ssVwochen
p14
(dp15
g4
I1
sg5
I0
ssVinternen
p16
(dp17
g4
I1
sg5
I0
ssVumts
p18
(dp19
g4
I1
sg5
I0
ssVprotest
p20
(dp21
g4
I1
sg5
I0
ssVdienste
p22
(dp23
g4
I2
sg5
I0
ssVdreidimensionale
p24
(dp25
g4
I1
sg5
I0
ssVmpfen
p26
(dp27
g4
I1
sg5
I0
ssVforget
p28
(dp29
g4
I1
sg5
I0
ssVexpatriates
p30
(dp31
g4
I0
sg5
I1
ssVprogrammvielfalt
p32
(dp33
g4
I1
sg5
I0
ssVvorrundenspiel
p34
(dp35
g4
I2
sg5
I0
ssVdazu
p36
(dp37
g4
I1
sg5
I2
ssVauf
p38
(dp39
g4
I52
sg5
I15
ssVeingereicht
p40
(dp41
g4
I1
sg5
I0
ssVerst
p42
(dp43
g4
I0
sg5
I1
ssVballsimulation
p44
(dp45
g4
I1
sg5
I0
ssVeingabeger
p46
(dp47
g4
I1
sg5
I0
ssVmessi
p48
(dp49
g4
I0
sg5
I1
ssVaus
p50
(dp51
g4
I22
sg5
I13
ssVbike
p52
(dp53
g4
I1
sg5
I0
ssVvoraus
p54
(dp55
g4
I0
sg5
I1
ssVentstehung
p56
(dp57
g4
I0
sg5
I1
ssVvergessen
p58
(dp59
g4
I1
sg5
I0
ssVgetesteten
p60
(dp61
g4
I1
sg5
I0
ssVumstieg
p62
(dp63
g4
I1
sg5
I0
ssVneue
p64
(dp65
g4
I22
sg5
I4
ssVschweinsteiger
p66
(dp67
g4
I0
sg5
I1
ssVbefehligt
p68
(dp69
g4
I0
sg5
I1
ssVverschiedener
p70
(dp71
g4
I1
sg5
I0
ssVgerade
p72
(dp73
g4
I1
sg5
I1
ssVverschiedenen
p74
(dp75
g4
I1
sg5
I0
ssVletzten
p76
(dp77
g4
I3
sg5
I3
ssVupdates
p78
(dp79
g4
I1
sg5
I0
ssVabnicken
p80
(dp81
g4
I1
sg5
I0
ssVlumia
p82
(dp83
g4
I1
sg5
I0
ssVforderte
p84
(dp85
g4
I0
sg5
I1
ssVmessagingdienst
p86
(dp87
g4
I1
sg5
I0
ssVdern
p88
(dp89
g4
I0
sg5
I1
ssVniederlage
p90
(dp91
g4
I0
sg5
I1
ssVregierungschefs
p92
(dp93
g4
I0
sg5
I1
ssVvorgestelltes
p94
(dp95
g4
I1
sg5
I0
ssVhaben
p96
(dp97
g4
I20
sg5
I13
ssVphase
p98
(dp99
g4
I0
sg5
I1
ssVtlichkeiten
p100
(dp101
g4
I0
sg5
I2
ssVgeworden
p102
(dp103
g4
I1
sg5
I1
ssVvenus
p104
(dp105
g4
I0
sg5
I1
ssVzdf
p106
(dp107
g4
I3
sg5
I1
ssVblick
p108
(dp109
g4
I3
sg5
I0
ssVanschlie
p110
(dp111
g4
I1
sg5
I0
ssVgucken
p112
(dp113
g4
I1
sg5
I1
ssVrttemberg
p114
(dp115
g4
I0
sg5
I2
ssVzuletzt
p116
(dp117
g4
I0
sg5
I1
ssVkampfflugzeuge
p118
(dp119
g4
I0
sg5
I1
ssVenth
p120
(dp121
g4
I3
sg5
I0
ssVhollande
p122
(dp123
g4
I0
sg5
I1
ssVverschwunden
p124
(dp125
g4
I1
sg5
I0
ssVwarnt
p126
(dp127
g4
I0
sg5
I3
ssVpartei
p128
(dp129
g4
I0
sg5
I1
ssVchef
p130
(dp131
g4
I3
sg5
I3
ssVlaserlicht
p132
(dp133
g4
I1
sg5
I0
ssVtrifft
p134
(dp135
g4
I2
sg5
I2
ssVentt
p136
(dp137
g4
I1
sg5
I0
ssVlebensjahre
p138
(dp139
g4
I0
sg5
I1
ssVchen
p140
(dp141
g4
I0
sg5
I1
ssVnigt
p142
(dp143
g4
I0
sg5
I1
ssVankurbeln
p144
(dp145
g4
I0
sg5
I1
ssVnen
p146
(dp147
g4
I0
sg5
I2
ssVneo
p148
(dp149
g4
I1
sg5
I0
ssVcaptain
p150
(dp151
g4
I0
sg5
I1
ssVmicrosofts
p152
(dp153
g4
I3
sg5
I0
ssVabsturzgef
p154
(dp155
g4
I1
sg5
I0
ssVsselte
p156
(dp157
g4
I1
sg5
I0
ssVstars
p158
(dp159
g4
I0
sg5
I1
ssVabsurdit
p160
(dp161
g4
I0
sg5
I1
ssVasia
p162
(dp163
g4
I1
sg5
I0
ssVals
p164
(dp165
g4
I19
sg5
I15
ssVbotschaften
p166
(dp167
g4
I0
sg5
I1
ssVbewertete
p168
(dp169
g4
I0
sg5
I1
ssVwandspeicher
p170
(dp171
g4
I2
sg5
I0
ssVneu
p172
(dp173
g4
I3
sg5
I0
ssVkampfkunst
p174
(dp175
g4
I1
sg5
I0
ssVbrandneue
p176
(dp177
g4
I1
sg5
I0
ssVdort
p178
(dp179
g4
I0
sg5
I2
ssVsinkt
p180
(dp181
g4
I1
sg5
I0
ssVverankerung
p182
(dp183
g4
I0
sg5
I1
ssVgiroud
p184
(dp185
g4
I0
sg5
I1
ssVbezahlen
p186
(dp187
g4
I0
sg5
I1
ssVmenschen
p188
(dp189
g4
I1
sg5
I1
ssVhere
p190
(dp191
g4
I2
sg5
I1
ssVdrei
p192
(dp193
g4
I1
sg5
I4
ssVnicht
p194
(dp195
g4
I19
sg5
I22
ssVchina
p196
(dp197
g4
I1
sg5
I2
ssVbestritt
p198
(dp199
g4
I0
sg5
I1
ssVchino
p200
(dp201
g4
I1
sg5
I0
ssVbremsen
p202
(dp203
g4
I1
sg5
I0
ssVstudie
p204
(dp205
g4
I0
sg5
I2
ssVgrenze
p206
(dp207
g4
I0
sg5
I1
ssVrichter
p208
(dp209
g4
I0
sg5
I2
ssVanstatt
p210
(dp211
g4
I1
sg5
I0
ssVserienbildrate
p212
(dp213
g4
I1
sg5
I0
ssVkarim
p214
(dp215
g4
I0
sg5
I1
ssVparteivorstand
p216
(dp217
g4
I0
sg5
I1
ssVdatenleck
p218
(dp219
g4
I1
sg5
I0
ssVkleidern
p220
(dp221
g4
I0
sg5
I1
ssVberschaubar
p222
(dp223
g4
I1
sg5
I0
ssVgeplante
p224
(dp225
g4
I0
sg5
I1
ssVauszeichnung
p226
(dp227
g4
I1
sg5
I0
ssVreichen
p228
(dp229
g4
I1
sg5
I0
ssVuntersuchungshaft
p230
(dp231
g4
I0
sg5
I1
ssVvergleichen
p232
(dp233
g4
I1
sg5
I0
ssVsportspiel
p234
(dp235
g4
I1
sg5
I0
ssVeinsatzes
p236
(dp237
g4
I0
sg5
I1
ssVbildfl
p238
(dp239
g4
I1
sg5
I0
ssVunis
p240
(dp241
g4
I0
sg5
I1
ssVempfang
p242
(dp243
g4
I2
sg5
I0
ssVunzufriedenheit
p244
(dp245
g4
I0
sg5
I1
ssVreagieren
p246
(dp247
g4
I0
sg5
I1
ssVbildschirminhalts
p248
(dp249
g4
I1
sg5
I0
ssVgehorcht
p250
(dp251
g4
I1
sg5
I0
ssVdrohnen
p252
(dp253
g4
I1
sg5
I0
ssVarmv
p254
(dp255
g4
I1
sg5
I0
ssVeiniges
p256
(dp257
g4
I1
sg5
I0
ssVzahlungen
p258
(dp259
g4
I1
sg5
I0
ssVstandardfunktionen
p260
(dp261
g4
I1
sg5
I0
ssVdatenraten
p262
(dp263
g4
I1
sg5
I0
ssVanwendungen
p264
(dp265
g4
I1
sg5
I0
ssVkabelsalat
p266
(dp267
g4
I1
sg5
I0
ssVvom
p268
(dp269
g4
I6
sg5
I4
ssVunbewaffnet
p270
(dp271
g4
I1
sg5
I0
ssVallseits
p272
(dp273
g4
I1
sg5
I0
ssVpreview
p274
(dp275
g4
I1
sg5
I0
ssVlimousine
p276
(dp277
g4
I1
sg5
I0
ssVkrieg
p278
(dp279
g4
I0
sg5
I1
ssVsnowden
p280
(dp281
g4
I1
sg5
I0
ssVrootzone
p282
(dp283
g4
I1
sg5
I0
ssVbildqualit
p284
(dp285
g4
I3
sg5
I0
ssVangeschlossen
p286
(dp287
g4
I1
sg5
I0
ssVstadien
p288
(dp289
g4
I1
sg5
I1
ssVholt
p290
(dp291
g4
I0
sg5
I1
ssVbringt
p292
(dp293
g4
I4
sg5
I0
ssVmeere
p294
(dp295
g4
I1
sg5
I0
ssVberlin
p296
(dp297
g4
I1
sg5
I2
ssVwebbrowser
p298
(dp299
g4
I3
sg5
I0
ssVsicher
p300
(dp301
g4
I2
sg5
I0
ssVqualm
p302
(dp303
g4
I0
sg5
I1
ssVmuss
p304
(dp305
g4
I2
sg5
I7
ssVchtlinge
p306
(dp307
g4
I0
sg5
I1
ssVmarktstart
p308
(dp309
g4
I1
sg5
I0
ssVkompaktkamera
p310
(dp311
g4
I1
sg5
I0
ssVreformieren
p312
(dp313
g4
I0
sg5
I1
ssVpolitiker
p314
(dp315
g4
I0
sg5
I1
ssVsyriens
p316
(dp317
g4
I0
sg5
I1
ssVhaube
p318
(dp319
g4
I1
sg5
I0
ssVweiteres
p320
(dp321
g4
I1
sg5
I0
ssVwork
p322
(dp323
g4
I1
sg5
I0
ssVeclipse
p324
(dp325
g4
I1
sg5
I0
ssVlocken
p326
(dp327
g4
I1
sg5
I0
ssVere
p328
(dp329
g4
I2
sg5
I0
ssVerg
p330
(dp331
g4
I1
sg5
I0
ssVwort
p332
(dp333
g4
I3
sg5
I0
ssVerl
p334
(dp335
g4
I1
sg5
I0
ssVerm
p336
(dp337
g4
I1
sg5
I0
ssVern
p338
(dp339
g4
I0
sg5
I1
ssVkamera
p340
(dp341
g4
I1
sg5
I0
ssVerh
p342
(dp343
g4
I3
sg5
I0
ssVvergie
p344
(dp345
g4
I1
sg5
I0
ssVgespielter
p346
(dp347
g4
I0
sg5
I1
ssVherung
p348
(dp349
g4
I0
sg5
I1
ssVindie
p350
(dp351
g4
I1
sg5
I0
ssVnftig
p352
(dp353
g4
I2
sg5
I0
ssVgelungenes
p354
(dp355
g4
I1
sg5
I0
ssVwann
p356
(dp357
g4
I2
sg5
I0
ssVindien
p358
(dp359
g4
I1
sg5
I0
ssVgeben
p360
(dp361
g4
I0
sg5
I2
ssVniedrigere
p362
(dp363
g4
I1
sg5
I0
ssVsterben
p364
(dp365
g4
I0
sg5
I1
ssVwirklich
p366
(dp367
g4
I1
sg5
I0
ssVjungen
p368
(dp369
g4
I1
sg5
I0
ssVlebenszeichen
p370
(dp371
g4
I1
sg5
I0
ssVumsatzplus
p372
(dp373
g4
I1
sg5
I0
ssVzielen
p374
(dp375
g4
I1
sg5
I0
ssVmitglieder
p376
(dp377
g4
I1
sg5
I0
ssVhandelsblatt
p378
(dp379
g4
I0
sg5
I1
ssVanderes
p380
(dp381
g4
I1
sg5
I0
ssVniemand
p382
(dp383
g4
I0
sg5
I1
ssVend
p384
(dp385
g4
I1
sg5
I0
ssVmachthaber
p386
(dp387
g4
I0
sg5
I1
ssVquot
p388
(dp389
g4
I11
sg5
I0
ssVnationen
p390
(dp391
g4
I0
sg5
I1
ssVische
p392
(dp393
g4
I0
sg5
I1
ssVfeature
p394
(dp395
g4
I1
sg5
I0
ssVsystemdienste
p396
(dp397
g4
I1
sg5
I0
ssVmonatsanfang
p398
(dp399
g4
I1
sg5
I0
ssVarbeitszimmern
p400
(dp401
g4
I1
sg5
I0
ssVenr
p402
(dp403
g4
I0
sg5
I1
ssVbekommt
p404
(dp405
g4
I1
sg5
I1
ssVstrom
p406
(dp407
g4
I2
sg5
I0
ssVanderen
p408
(dp409
g4
I1
sg5
I0
ssVanderem
p410
(dp411
g4
I8
sg5
I0
ssVdienstleister
p412
(dp413
g4
I1
sg5
I0
ssVquipe
p414
(dp415
g4
I0
sg5
I1
ssVlab
p416
(dp417
g4
I1
sg5
I0
ssVbillig
p418
(dp419
g4
I1
sg5
I0
ssVkaspersky
p420
(dp421
g4
I1
sg5
I0
ssVversprechen
p422
(dp423
g4
I1
sg5
I0
ssVparallel
p424
(dp425
g4
I1
sg5
I0
ssVmieter
p426
(dp427
g4
I0
sg5
I1
ssVvermeintlich
p428
(dp429
g4
I1
sg5
I0
ssVchinesischer
p430
(dp431
g4
I0
sg5
I1
ssVherausholen
p432
(dp433
g4
I2
sg5
I0
ssVgelassen
p434
(dp435
g4
I0
sg5
I1
ssVreagiert
p436
(dp437
g4
I1
sg5
I0
ssVairprint
p438
(dp439
g4
I1
sg5
I0
ssVdeutsche
p440
(dp441
g4
I4
sg5
I4
ssVharley
p442
(dp443
g4
I1
sg5
I0
ssVkontrollen
p444
(dp445
g4
I1
sg5
I0
ssVtastenkombination
p446
(dp447
g4
I1
sg5
I0
ssVicann
p448
(dp449
g4
I2
sg5
I0
ssVstra
p450
(dp451
g4
I0
sg5
I1
ssVbitterarme
p452
(dp453
g4
I0
sg5
I1
ssVstrg
p454
(dp455
g4
I1
sg5
I0
ssVklarstellung
p456
(dp457
g4
I1
sg5
I0
ssVchtlingen
p458
(dp459
g4
I0
sg5
I1
ssVfifa
p460
(dp461
g4
I1
sg5
I0
ssVfeedback
p462
(dp463
g4
I1
sg5
I0
ssVblockade
p464
(dp465
g4
I0
sg5
I1
ssVbauchnabeltor
p466
(dp467
g4
I0
sg5
I1
ssVfall
p468
(dp469
g4
I0
sg5
I1
ssVkompromittieren
p470
(dp471
g4
I0
sg5
I1
ssVeffizienzsteigerung
p472
(dp473
g4
I1
sg5
I0
ssVdiert
p474
(dp475
g4
I1
sg5
I0
ssVvita
p476
(dp477
g4
I1
sg5
I0
ssVentwicklungsumgebung
p478
(dp479
g4
I2
sg5
I0
ssVbaugleich
p480
(dp481
g4
I1
sg5
I0
ssVnscht
p482
(dp483
g4
I0
sg5
I1
ssVhrliches
p484
(dp485
g4
I1
sg5
I0
ssVfit
p486
(dp487
g4
I1
sg5
I0
ssVfreie
p488
(dp489
g4
I0
sg5
I1
ssVnebenbei
p490
(dp491
g4
I1
sg5
I0
ssVschwerverbrechen
p492
(dp493
g4
I0
sg5
I1
ssVbrasilien
p494
(dp495
g4
I4
sg5
I2
ssVelektronics
p496
(dp497
g4
I1
sg5
I0
ssVtypisches
p498
(dp499
g4
I0
sg5
I1
ssVerlaubt
p500
(dp501
g4
I3
sg5
I0
ssVfig
p502
(dp503
g4
I1
sg5
I0
ssVchromecast
p504
(dp505
g4
I1
sg5
I0
ssVapotheker
p506
(dp507
g4
I0
sg5
I1
ssVspielregeln
p508
(dp509
g4
I0
sg5
I1
ssVgespeicherte
p510
(dp511
g4
I1
sg5
I0
ssVgezeigt
p512
(dp513
g4
I1
sg5
I0
ssVftsf
p514
(dp515
g4
I1
sg5
I0
ssVlieblingsprojekt
p516
(dp517
g4
I0
sg5
I1
ssVspezialisiert
p518
(dp519
g4
I0
sg5
I1
ssVcpus
p520
(dp521
g4
I1
sg5
I0
ssVislamistischen
p522
(dp523
g4
I0
sg5
I1
ssVforsa
p524
(dp525
g4
I0
sg5
I1
ssVgriezmann
p526
(dp527
g4
I0
sg5
I1
ssVgesch
p528
(dp529
g4
I3
sg5
I0
ssVbewertungen
p530
(dp531
g4
I0
sg5
I1
ssVheiko
p532
(dp533
g4
I0
sg5
I1
ssVsilver
p534
(dp535
g4
I1
sg5
I0
ssVwenn
p536
(dp537
g4
I3
sg5
I4
ssVmindestens
p538
(dp539
g4
I2
sg5
I0
ssVklingen
p540
(dp541
g4
I1
sg5
I0
ssVdebut
p542
(dp543
g4
I1
sg5
I0
ssVsmartphon
p544
(dp545
g4
I1
sg5
I0
ssVbionickangaroo
p546
(dp547
g4
I0
sg5
I1
ssVtelekom
p548
(dp549
g4
I2
sg5
I0
ssVbestwert
p550
(dp551
g4
I1
sg5
I0
ssVpolitikergespr
p552
(dp553
g4
I0
sg5
I1
ssVzulegten
p554
(dp555
g4
I1
sg5
I0
ssVihn
p556
(dp557
g4
I1
sg5
I4
ssVfaikee
p558
(dp559
g4
I1
sg5
I0
ssVbohrt
p560
(dp561
g4
I1
sg5
I0
ssVadobe
p562
(dp563
g4
I4
sg5
I0
ssVenorm
p564
(dp565
g4
I1
sg5
I0
ssVnigerias
p566
(dp567
g4
I0
sg5
I1
ssVmedien
p568
(dp569
g4
I1
sg5
I1
ssVlogo
p570
(dp571
g4
I1
sg5
I0
ssVhalbherzig
p572
(dp573
g4
I0
sg5
I1
ssVunwahrscheinlich
p574
(dp575
g4
I1
sg5
I0
ssVsprudeln
p576
(dp577
g4
I0
sg5
I1
ssVnutzung
p578
(dp579
g4
I1
sg5
I0
ssVhalbe
p580
(dp581
g4
I1
sg5
I0
ssVunternehmens
p582
(dp583
g4
I1
sg5
I0
ssVdisplay
p584
(dp585
g4
I5
sg5
I0
ssVstunden
p586
(dp587
g4
I0
sg5
I1
ssVdiesem
p588
(dp589
g4
I2
sg5
I0
ssVdiesen
p590
(dp591
g4
I1
sg5
I1
ssVfertigungsdatum
p592
(dp593
g4
I1
sg5
I0
ssVkombiniert
p594
(dp595
g4
I1
sg5
I0
ssVdieser
p596
(dp597
g4
I2
sg5
I1
ssVdieses
p598
(dp599
g4
I1
sg5
I0
ssVwerde
p600
(dp601
g4
I0
sg5
I1
ssVreader
p602
(dp603
g4
I1
sg5
I0
ssVdrittel
p604
(dp605
g4
I0
sg5
I1
ssVfoundation
p606
(dp607
g4
I2
sg5
I0
ssVfoto
p608
(dp609
g4
I2
sg5
I0
ssVforscherteam
p610
(dp611
g4
I1
sg5
I0
ssVwenigen
p612
(dp613
g4
I1
sg5
I0
ssVreisen
p614
(dp615
g4
I0
sg5
I1
ssVterrorgruppe
p616
(dp617
g4
I0
sg5
I1
ssVstandard
p618
(dp619
g4
I3
sg5
I0
ssVapotheke
p620
(dp621
g4
I0
sg5
I1
ssVppige
p622
(dp623
g4
I1
sg5
I0
ssVschen
p624
(dp625
g4
I1
sg5
I0
ssVndern
p626
(dp627
g4
I1
sg5
I4
ssVanfang
p628
(dp629
g4
I0
sg5
I1
ssVsensors
p630
(dp631
g4
I1
sg5
I0
ssVvoll
p632
(dp633
g4
I1
sg5
I0
ssVspdy
p634
(dp635
g4
I1
sg5
I0
ssVverkehrsminister
p636
(dp637
g4
I0
sg5
I1
ssVpflegeheime
p638
(dp639
g4
I0
sg5
I1
ssVgewinn
p640
(dp641
g4
I1
sg5
I0
ssVbeginnen
p642
(dp643
g4
I0
sg5
I1
ssVlner
p644
(dp645
g4
I0
sg5
I1
ssVsurfpauschale
p646
(dp647
g4
I1
sg5
I0
ssVopenssl
p648
(dp649
g4
I2
sg5
I0
ssVist
p650
(dp651
g4
I39
sg5
I22
ssVunabh
p652
(dp653
g4
I2
sg5
I1
ssViso
p654
(dp655
g4
I1
sg5
I0
ssVguttenberg
p656
(dp657
g4
I1
sg5
I1
ssVabgesang
p658
(dp659
g4
I0
sg5
I1
ssVisc
p660
(dp661
g4
I2
sg5
I0
ssVanderthalb
p662
(dp663
g4
I1
sg5
I0
ssVsident
p664
(dp665
g4
I0
sg5
I6
ssVschwedische
p666
(dp667
g4
I0
sg5
I1
ssVedward
p668
(dp669
g4
I1
sg5
I0
ssVeiner
p670
(dp671
g4
I6
sg5
I9
ssVeines
p672
(dp673
g4
I4
sg5
I5
ssVrender
p674
(dp675
g4
I1
sg5
I0
ssVverfolgen
p676
(dp677
g4
I3
sg5
I1
ssVreihe
p678
(dp679
g4
I4
sg5
I0
ssVlauten
p680
(dp681
g4
I1
sg5
I0
ssVbeliebte
p682
(dp683
g4
I1
sg5
I0
ssVversteckten
p684
(dp685
g4
I1
sg5
I0
ssVverborgene
p686
(dp687
g4
I1
sg5
I0
ssVgriff
p688
(dp689
g4
I0
sg5
I1
ssVpreis
p690
(dp691
g4
I4
sg5
I0
ssVeinen
p692
(dp693
g4
I18
sg5
I7
ssVeinem
p694
(dp695
g4
I11
sg5
I10
ssVdritten
p696
(dp697
g4
I0
sg5
I1
ssVrechtspopulisten
p698
(dp699
g4
I0
sg5
I1
ssVsexuelle
p700
(dp701
g4
I0
sg5
I1
ssVendlich
p702
(dp703
g4
I1
sg5
I0
ssVmillionen
p704
(dp705
g4
I3
sg5
I2
ssVriesenpolizeieinsatz
p706
(dp707
g4
I0
sg5
I1
ssVservice
p708
(dp709
g4
I2
sg5
I0
ssVlego
p710
(dp711
g4
I1
sg5
I0
ssVrussischem
p712
(dp713
g4
I0
sg5
I1
ssVtop
p714
(dp715
g4
I4
sg5
I0
ssVausbreitung
p716
(dp717
g4
I0
sg5
I1
ssVtot
p718
(dp719
g4
I1
sg5
I0
ssVhnlich
p720
(dp721
g4
I2
sg5
I0
ssVversteckt
p722
(dp723
g4
I1
sg5
I0
ssVckziehen
p724
(dp725
g4
I1
sg5
I0
ssVlegt
p726
(dp727
g4
I1
sg5
I0
ssVgenesis
p728
(dp729
g4
I1
sg5
I0
ssVredner
p730
(dp731
g4
I1
sg5
I0
ssVlaufen
p732
(dp733
g4
I1
sg5
I0
ssVganze
p734
(dp735
g4
I1
sg5
I0
ssVerreichen
p736
(dp737
g4
I2
sg5
I0
ssVbetriebssystems
p738
(dp739
g4
I2
sg5
I0
ssVangleichen
p740
(dp741
g4
I0
sg5
I1
ssVtool
p742
(dp743
g4
I1
sg5
I0
ssVministerpr
p744
(dp745
g4
I0
sg5
I3
ssVoffiziellen
p746
(dp747
g4
I1
sg5
I0
ssVstarteten
p748
(dp749
g4
I1
sg5
I0
ssVbeiden
p750
(dp751
g4
I0
sg5
I2
ssVssliche
p752
(dp753
g4
I0
sg5
I1
ssVtechnik
p754
(dp755
g4
I2
sg5
I0
ssVabstimmung
p756
(dp757
g4
I0
sg5
I1
ssVntia
p758
(dp759
g4
I1
sg5
I0
ssVmodernisieren
p760
(dp761
g4
I1
sg5
I0
ssValternative
p762
(dp763
g4
I1
sg5
I0
ssVislamisten
p764
(dp765
g4
I0
sg5
I1
ssVrissen
p766
(dp767
g4
I0
sg5
I1
ssVballfans
p768
(dp769
g4
I0
sg5
I1
ssVstaatskasse
p770
(dp771
g4
I0
sg5
I1
ssVisaf
p772
(dp773
g4
I0
sg5
I1
ssVvielen
p774
(dp775
g4
I4
sg5
I0
ssVspektrumteilung
p776
(dp777
g4
I1
sg5
I0
ssVebay
p778
(dp779
g4
I1
sg5
I0
ssVproject
p780
(dp781
g4
I1
sg5
I0
ssVverraten
p782
(dp783
g4
I2
sg5
I0
ssVstreet
p784
(dp785
g4
I1
sg5
I0
ssVfahrerlebnis
p786
(dp787
g4
I1
sg5
I0
ssVwiesen
p788
(dp789
g4
I0
sg5
I1
ssVhacking
p790
(dp791
g4
I1
sg5
I0
ssVvieler
p792
(dp793
g4
I1
sg5
I0
ssVdaint
p794
(dp795
g4
I1
sg5
I0
ssVmedikamenten
p796
(dp797
g4
I0
sg5
I1
ssVzunehmend
p798
(dp799
g4
I0
sg5
I1
ssVmini
p800
(dp801
g4
I1
sg5
I0
ssVnadella
p802
(dp803
g4
I1
sg5
I0
ssVram
p804
(dp805
g4
I1
sg5
I0
ssVwiderstand
p806
(dp807
g4
I0
sg5
I1
ssVrat
p808
(dp809
g4
I0
sg5
I1
ssVrau
p810
(dp811
g4
I1
sg5
I0
ssVmannes
p812
(dp813
g4
I1
sg5
I0
ssVpcfritz
p814
(dp815
g4
I1
sg5
I0
ssVnachfolger
p816
(dp817
g4
I2
sg5
I2
ssVseen
p818
(dp819
g4
I1
sg5
I0
ssVlautsprecher
p820
(dp821
g4
I1
sg5
I0
ssVunsichtbarer
p822
(dp823
g4
I0
sg5
I1
ssVriesigen
p824
(dp825
g4
I1
sg5
I0
ssVray
p826
(dp827
g4
I1
sg5
I0
ssVkommende
p828
(dp829
g4
I1
sg5
I0
ssVladen
p830
(dp831
g4
I1
sg5
I1
ssVtimberlake
p832
(dp833
g4
I0
sg5
I1
ssVreale
p834
(dp835
g4
I1
sg5
I0
ssVurteilen
p836
(dp837
g4
I0
sg5
I1
ssVderen
p838
(dp839
g4
I1
sg5
I1
ssVmaxi
p840
(dp841
g4
I1
sg5
I0
ssVbefehle
p842
(dp843
g4
I1
sg5
I0
ssVrse
p844
(dp845
g4
I1
sg5
I0
ssVdavidson
p846
(dp847
g4
I1
sg5
I0
ssVinzwischen
p848
(dp849
g4
I1
sg5
I2
ssVzehnten
p850
(dp851
g4
I1
sg5
I0
ssVsegeld
p852
(dp853
g4
I1
sg5
I0
ssVkostenlose
p854
(dp855
g4
I3
sg5
I0
ssVniedrigeren
p856
(dp857
g4
I1
sg5
I0
ssVgermany
p858
(dp859
g4
I1
sg5
I0
ssVmindestgr
p860
(dp861
g4
I0
sg5
I2
ssVscripts
p862
(dp863
g4
I1
sg5
I0
ssVbsd
p864
(dp865
g4
I1
sg5
I0
ssVtyp
p866
(dp867
g4
I3
sg5
I0
ssVthe
p868
(dp869
g4
I3
sg5
I0
ssVgeschlagen
p870
(dp871
g4
I1
sg5
I0
ssVglobalem
p872
(dp873
g4
I0
sg5
I1
ssVschadenersatz
p874
(dp875
g4
I0
sg5
I1
ssVkleine
p876
(dp877
g4
I0
sg5
I2
ssVbescheidenheit
p878
(dp879
g4
I0
sg5
I1
ssVparallelspiel
p880
(dp881
g4
I1
sg5
I0
ssVabh
p882
(dp883
g4
I0
sg5
I3
ssVtech
p884
(dp885
g4
I1
sg5
I0
ssVkanadische
p886
(dp887
g4
I1
sg5
I0
ssVpapermaster
p888
(dp889
g4
I1
sg5
I0
ssVpkw
p890
(dp891
g4
I1
sg5
I1
ssVwenig
p892
(dp893
g4
I0
sg5
I1
ssVabl
p894
(dp895
g4
I1
sg5
I0
ssVdrogen
p896
(dp897
g4
I0
sg5
I3
ssVradio
p898
(dp899
g4
I1
sg5
I0
ssVgeheimzahlen
p900
(dp901
g4
I0
sg5
I1
ssVearth
p902
(dp903
g4
I1
sg5
I0
ssVhungen
p904
(dp905
g4
I2
sg5
I1
ssVstrafverfolgung
p906
(dp907
g4
I0
sg5
I2
ssVsagt
p908
(dp909
g4
I1
sg5
I3
ssVgrafikkarte
p910
(dp911
g4
I2
sg5
I0
ssVhrt
p912
(dp913
g4
I4
sg5
I0
ssVheimatschutz
p914
(dp915
g4
I0
sg5
I2
ssVrihanna
p916
(dp917
g4
I0
sg5
I1
ssVtheme
p918
(dp919
g4
I1
sg5
I0
ssVversion
p920
(dp921
g4
I12
sg5
I0
ssVkurzem
p922
(dp923
g4
I1
sg5
I0
ssValdi
p924
(dp925
g4
I4
sg5
I0
ssVsehen
p926
(dp927
g4
I1
sg5
I1
ssVdurchwachsener
p928
(dp929
g4
I1
sg5
I0
ssVsieg
p930
(dp931
g4
I1
sg5
I1
ssVipad
p932
(dp933
g4
I1
sg5
I0
ssVdetailliert
p934
(dp935
g4
I1
sg5
I0
ssVklein
p936
(dp937
g4
I0
sg5
I1
ssVwatch
p938
(dp939
g4
I1
sg5
I0
ssVamazon
p940
(dp941
g4
I4
sg5
I1
ssVtipp
p942
(dp943
g4
I0
sg5
I1
ssVwachstum
p944
(dp945
g4
I0
sg5
I2
ssVausstellen
p946
(dp947
g4
I0
sg5
I1
ssVjohanna
p948
(dp949
g4
I0
sg5
I1
ssVsaturn
p950
(dp951
g4
I2
sg5
I0
ssVsammelt
p952
(dp953
g4
I1
sg5
I0
ssVschlichter
p954
(dp955
g4
I0
sg5
I1
ssVplatz
p956
(dp957
g4
I1
sg5
I2
ssVgbyte
p958
(dp959
g4
I1
sg5
I0
ssVabzusehen
p960
(dp961
g4
I0
sg5
I1
ssVbar
p962
(dp963
g4
I0
sg5
I1
ssVbel
p964
(dp965
g4
I0
sg5
I2
ssVrfere
p966
(dp967
g4
I1
sg5
I0
ssVberwachung
p968
(dp969
g4
I0
sg5
I2
ssVgoldenes
p970
(dp971
g4
I0
sg5
I1
ssVpatch
p972
(dp973
g4
I1
sg5
I0
ssVvielmehr
p974
(dp975
g4
I1
sg5
I0
ssVrund
p976
(dp977
g4
I1
sg5
I2
ssVnichts
p978
(dp979
g4
I0
sg5
I1
ssVrelease
p980
(dp981
g4
I7
sg5
I0
ssVwachsen
p982
(dp983
g4
I1
sg5
I1
ssVsteam
p984
(dp985
g4
I4
sg5
I0
ssVplaystation
p986
(dp987
g4
I4
sg5
I0
ssVimpfstoff
p988
(dp989
g4
I0
sg5
I1
ssVrockstar
p990
(dp991
g4
I1
sg5
I0
ssVspionage
p992
(dp993
g4
I1
sg5
I0
ssVprotestlern
p994
(dp995
g4
I1
sg5
I0
ssVnur
p996
(dp997
g4
I14
sg5
I6
ssVbertragung
p998
(dp999
g4
I2
sg5
I0
ssVjahren
p1000
(dp1001
g4
I5
sg5
I5
ssVnun
p1002
(dp1003
g4
I10
sg5
I10
ssVverschoben
p1004
(dp1005
g4
I0
sg5
I1
ssVprotzt
p1006
(dp1007
g4
I1
sg5
I0
ssVschreiben
p1008
(dp1009
g4
I0
sg5
I2
ssVteuer
p1010
(dp1011
g4
I0
sg5
I1
ssVuseform
p1012
(dp1013
g4
I1
sg5
I0
ssVeigener
p1014
(dp1015
g4
I1
sg5
I0
ssVbest
p1016
(dp1017
g4
I0
sg5
I1
ssVfangen
p1018
(dp1019
g4
I1
sg5
I0
ssVrende
p1020
(dp1021
g4
I1
sg5
I0
ssVamtliche
p1022
(dp1023
g4
I1
sg5
I0
ssVfingen
p1024
(dp1025
g4
I1
sg5
I0
ssVweiter
p1026
(dp1027
g4
I2
sg5
I3
ssVsseldorfer
p1028
(dp1029
g4
I0
sg5
I1
ssVbekannt
p1030
(dp1031
g4
I3
sg5
I2
ssVhebt
p1032
(dp1033
g4
I1
sg5
I0
ssVsachsen
p1034
(dp1035
g4
I0
sg5
I2
ssVfigur
p1036
(dp1037
g4
I1
sg5
I0
ssVrzt
p1038
(dp1039
g4
I1
sg5
I0
ssVfinger
p1040
(dp1041
g4
I1
sg5
I0
ssVbestraft
p1042
(dp1043
g4
I0
sg5
I2
ssVverkaufszahlen
p1044
(dp1045
g4
I1
sg5
I0
ssVdirekten
p1046
(dp1047
g4
I1
sg5
I0
ssVsslicher
p1048
(dp1049
g4
I1
sg5
I0
ssVaufwartet
p1050
(dp1051
g4
I1
sg5
I0
ssVdiese
p1052
(dp1053
g4
I6
sg5
I3
ssVfraglich
p1054
(dp1055
g4
I1
sg5
I0
ssVladematte
p1056
(dp1057
g4
I1
sg5
I0
ssVngigkeit
p1058
(dp1059
g4
I0
sg5
I1
ssVgenauer
p1060
(dp1061
g4
I1
sg5
I0
ssVblitzer
p1062
(dp1063
g4
I1
sg5
I0
ssVgeht
p1064
(dp1065
g4
I6
sg5
I1
ssVpreiswerte
p1066
(dp1067
g4
I1
sg5
I0
ssVwear
p1068
(dp1069
g4
I3
sg5
I0
ssVallgegenw
p1070
(dp1071
g4
I1
sg5
I0
ssVaktivit
p1072
(dp1073
g4
I1
sg5
I0
ssVnummer
p1074
(dp1075
g4
I1
sg5
I1
ssVstore
p1076
(dp1077
g4
I1
sg5
I0
ssVtablet
p1078
(dp1079
g4
I3
sg5
I0
ssVrecep
p1080
(dp1081
g4
I0
sg5
I1
ssVkabellos
p1082
(dp1083
g4
I2
sg5
I0
ssVunz
p1084
(dp1085
g4
I1
sg5
I0
ssVsagte
p1086
(dp1087
g4
I0
sg5
I1
ssVgenug
p1088
(dp1089
g4
I1
sg5
I0
ssVstuttgart
p1090
(dp1091
g4
I0
sg5
I1
ssVbefassen
p1092
(dp1093
g4
I1
sg5
I0
ssVund
p1094
(dp1095
g4
I92
sg5
I43
ssVgamer
p1096
(dp1097
g4
I2
sg5
I0
ssVgewinnen
p1098
(dp1099
g4
I0
sg5
I2
ssVuni
p1100
(dp1101
g4
I0
sg5
I1
ssVbrowser
p1102
(dp1103
g4
I4
sg5
I0
ssVcom
p1104
(dp1105
g4
I1
sg5
I0
ssVunn
p1106
(dp1107
g4
I1
sg5
I0
ssVabrechnung
p1108
(dp1109
g4
I0
sg5
I1
ssVaktuell
p1110
(dp1111
g4
I3
sg5
I0
ssVgesammelt
p1112
(dp1113
g4
I1
sg5
I0
ssVfundiertes
p1114
(dp1115
g4
I0
sg5
I1
ssVbewerberin
p1116
(dp1117
g4
I0
sg5
I1
ssVbildschirm
p1118
(dp1119
g4
I4
sg5
I0
ssVgesenkt
p1120
(dp1121
g4
I1
sg5
I0
ssVtzung
p1122
(dp1123
g4
I1
sg5
I1
ssVinitiative
p1124
(dp1125
g4
I1
sg5
I2
ssVtreffen
p1126
(dp1127
g4
I0
sg5
I1
ssVmonat
p1128
(dp1129
g4
I2
sg5
I0
ssVsoziale
p1130
(dp1131
g4
I0
sg5
I1
ssValler
p1132
(dp1133
g4
I2
sg5
I0
ssVeinkauf
p1134
(dp1135
g4
I1
sg5
I0
ssVcardboard
p1136
(dp1137
g4
I1
sg5
I0
ssVgezahlt
p1138
(dp1139
g4
I0
sg5
I1
ssVbasis
p1140
(dp1141
g4
I2
sg5
I0
ssVchrome
p1142
(dp1143
g4
I2
sg5
I0
ssVschiefergas
p1144
(dp1145
g4
I0
sg5
I1
ssVintegrit
p1146
(dp1147
g4
I1
sg5
I0
ssVbetrifft
p1148
(dp1149
g4
I1
sg5
I0
ssVsommelier
p1150
(dp1151
g4
I0
sg5
I2
ssVtizen
p1152
(dp1153
g4
I1
sg5
I0
ssVtino
p1154
(dp1155
g4
I0
sg5
I3
ssVsystemeinstellung
p1156
(dp1157
g4
I1
sg5
I0
ssVvorstellung
p1158
(dp1159
g4
I1
sg5
I0
ssVann
p1160
(dp1161
g4
I0
sg5
I1
ssVwebsite
p1162
(dp1163
g4
I1
sg5
I0
ssVglichkeit
p1164
(dp1165
g4
I1
sg5
I0
ssVdass
p1166
(dp1167
g4
I6
sg5
I5
ssVaufgabe
p1168
(dp1169
g4
I1
sg5
I0
ssVlightroom
p1170
(dp1171
g4
I1
sg5
I0
ssVanh
p1172
(dp1173
g4
I0
sg5
I1
ssVstehlen
p1174
(dp1175
g4
I0
sg5
I1
ssVsmartwatch
p1176
(dp1177
g4
I2
sg5
I0
ssVbaut
p1178
(dp1179
g4
I1
sg5
I1
ssVfest
p1180
(dp1181
g4
I1
sg5
I0
ssVfamilien
p1182
(dp1183
g4
I0
sg5
I1
ssVdatenknoten
p1184
(dp1185
g4
I0
sg5
I1
ssVfaktor
p1186
(dp1187
g4
I1
sg5
I0
ssVexekutionen
p1188
(dp1189
g4
I0
sg5
I1
ssVfanden
p1190
(dp1191
g4
I0
sg5
I1
ssVkooperation
p1192
(dp1193
g4
I2
sg5
I0
ssVauswertung
p1194
(dp1195
g4
I0
sg5
I1
ssVsselten
p1196
(dp1197
g4
I1
sg5
I0
ssVfragt
p1198
(dp1199
g4
I1
sg5
I0
ssVrechen
p1200
(dp1201
g4
I1
sg5
I0
ssVschnelle
p1202
(dp1203
g4
I1
sg5
I0
ssVfinanziell
p1204
(dp1205
g4
I1
sg5
I0
ssVxherdan
p1206
(dp1207
g4
I0
sg5
I1
ssVtzt
p1208
(dp1209
g4
I1
sg5
I0
ssVgrenzen
p1210
(dp1211
g4
I2
sg5
I0
ssVfreenet
p1212
(dp1213
g4
I2
sg5
I0
ssVverspricht
p1214
(dp1215
g4
I2
sg5
I0
ssVerschienenen
p1216
(dp1217
g4
I1
sg5
I0
ssVverbei
p1218
(dp1219
g4
I1
sg5
I0
ssVbesonderheit
p1220
(dp1221
g4
I1
sg5
I0
ssVplayer
p1222
(dp1223
g4
I1
sg5
I0
ssVsteuerhinterzieher
p1224
(dp1225
g4
I0
sg5
I2
ssVtze
p1226
(dp1227
g4
I1
sg5
I1
ssVgeheimdienstler
p1228
(dp1229
g4
I1
sg5
I0
ssVsmartwatches
p1230
(dp1231
g4
I1
sg5
I0
ssVvorgefertigte
p1232
(dp1233
g4
I1
sg5
I0
ssVfotos
p1234
(dp1235
g4
I4
sg5
I0
ssVnike
p1236
(dp1237
g4
I1
sg5
I0
ssVangebote
p1238
(dp1239
g4
I3
sg5
I0
ssVcoole
p1240
(dp1241
g4
I1
sg5
I0
ssVangewinkelt
p1242
(dp1243
g4
I1
sg5
I0
ssVoffizielle
p1244
(dp1245
g4
I0
sg5
I1
ssVsicherheitsbedenken
p1246
(dp1247
g4
I1
sg5
I0
ssVbig
p1248
(dp1249
g4
I1
sg5
I0
ssVtastenkombinationen
p1250
(dp1251
g4
I1
sg5
I0
ssVseines
p1252
(dp1253
g4
I3
sg5
I1
ssVjunge
p1254
(dp1255
g4
I1
sg5
I0
ssVfreih
p1256
(dp1257
g4
I2
sg5
I0
ssVmanche
p1258
(dp1259
g4
I1
sg5
I1
ssVnegativ
p1260
(dp1261
g4
I0
sg5
I1
ssVsakho
p1262
(dp1263
g4
I0
sg5
I2
ssVverkehr
p1264
(dp1265
g4
I0
sg5
I1
ssVfunktionen
p1266
(dp1267
g4
I5
sg5
I0
ssVausland
p1268
(dp1269
g4
I0
sg5
I1
ssVjetzt
p1270
(dp1271
g4
I9
sg5
I3
ssVnie
p1272
(dp1273
g4
I1
sg5
I0
ssVspottpreis
p1274
(dp1275
g4
I1
sg5
I0
ssVkim
p1276
(dp1277
g4
I0
sg5
I1
ssVtung
p1278
(dp1279
g4
I1
sg5
I0
ssVtowergeh
p1280
(dp1281
g4
I1
sg5
I0
ssVzweites
p1282
(dp1283
g4
I1
sg5
I1
ssVzweiter
p1284
(dp1285
g4
I0
sg5
I1
ssVihrem
p1286
(dp1287
g4
I2
sg5
I2
ssVihren
p1288
(dp1289
g4
I0
sg5
I1
ssVmahlow
p1290
(dp1291
g4
I1
sg5
I0
ssVurspr
p1292
(dp1293
g4
I0
sg5
I1
ssVstrategie
p1294
(dp1295
g4
I0
sg5
I1
ssVfusion
p1296
(dp1297
g4
I1
sg5
I0
ssVverbucht
p1298
(dp1299
g4
I1
sg5
I0
ssVenglischer
p1300
(dp1301
g4
I1
sg5
I0
ssVabgelaufenen
p1302
(dp1303
g4
I1
sg5
I0
ssVwestfalen
p1304
(dp1305
g4
I0
sg5
I2
ssVunbekannten
p1306
(dp1307
g4
I1
sg5
I0
ssVprogramm
p1308
(dp1309
g4
I2
sg5
I0
ssVihres
p1310
(dp1311
g4
I3
sg5
I0
ssVihrer
p1312
(dp1313
g4
I1
sg5
I0
ssValtenpflege
p1314
(dp1315
g4
I0
sg5
I1
ssVzweiten
p1316
(dp1317
g4
I2
sg5
I0
ssVanwesenden
p1318
(dp1319
g4
I1
sg5
I0
ssVandere
p1320
(dp1321
g4
I1
sg5
I4
ssVbundestag
p1322
(dp1323
g4
I2
sg5
I1
ssVbelegen
p1324
(dp1325
g4
I1
sg5
I0
ssVsolaris
p1326
(dp1327
g4
I1
sg5
I0
ssVdenen
p1328
(dp1329
g4
I1
sg5
I0
ssVsidentenamt
p1330
(dp1331
g4
I0
sg5
I1
ssVrksten
p1332
(dp1333
g4
I1
sg5
I0
ssVausgerechnet
p1334
(dp1335
g4
I0
sg5
I1
ssVrussland
p1336
(dp1337
g4
I0
sg5
I4
ssVanders
p1338
(dp1339
g4
I2
sg5
I1
ssVcampbell
p1340
(dp1341
g4
I0
sg5
I1
ssVtselhafte
p1342
(dp1343
g4
I1
sg5
I0
ssVbit
p1344
(dp1345
g4
I2
sg5
I0
ssVrabatten
p1346
(dp1347
g4
I1
sg5
I0
ssVentschieden
p1348
(dp1349
g4
I0
sg5
I1
ssVscorpio
p1350
(dp1351
g4
I1
sg5
I0
ssVweist
p1352
(dp1353
g4
I1
sg5
I0
ssVobwohl
p1354
(dp1355
g4
I1
sg5
I1
ssVfrage
p1356
(dp1357
g4
I2
sg5
I3
ssVbis
p1358
(dp1359
g4
I6
sg5
I1
ssVsitzende
p1360
(dp1361
g4
I0
sg5
I1
ssVfielen
p1362
(dp1363
g4
I0
sg5
I1
ssVbasiert
p1364
(dp1365
g4
I1
sg5
I0
ssVhat
p1366
(dp1367
g4
I37
sg5
I18
ssVwissen
p1368
(dp1369
g4
I2
sg5
I0
ssVbangkoks
p1370
(dp1371
g4
I0
sg5
I1
ssVbnd
p1372
(dp1373
g4
I2
sg5
I2
ssVsalihamidzic
p1374
(dp1375
g4
I0
sg5
I1
ssVkommenden
p1376
(dp1377
g4
I2
sg5
I0
ssVunter
p1378
(dp1379
g4
I12
sg5
I4
ssVsussex
p1380
(dp1381
g4
I1
sg5
I0
ssVschaltet
p1382
(dp1383
g4
I1
sg5
I1
ssVlcd
p1384
(dp1385
g4
I1
sg5
I0
ssVfirmen
p1386
(dp1387
g4
I1
sg5
I0
ssVahnungslosen
p1388
(dp1389
g4
I0
sg5
I2
ssVckruf
p1390
(dp1391
g4
I2
sg5
I0
ssVunten
p1392
(dp1393
g4
I1
sg5
I0
ssVchancen
p1394
(dp1395
g4
I0
sg5
I1
ssVprozessoren
p1396
(dp1397
g4
I2
sg5
I0
ssVrumor
p1398
(dp1399
g4
I1
sg5
I0
ssVwobei
p1400
(dp1401
g4
I1
sg5
I0
ssVtexte
p1402
(dp1403
g4
I1
sg5
I0
ssVtreffens
p1404
(dp1405
g4
I1
sg5
I0
ssVeigene
p1406
(dp1407
g4
I1
sg5
I0
ssVprotagonisten
p1408
(dp1409
g4
I0
sg5
I1
ssVnachbarn
p1410
(dp1411
g4
I0
sg5
I1
ssVxbox
p1412
(dp1413
g4
I3
sg5
I0
ssVsoldat
p1414
(dp1415
g4
I0
sg5
I1
ssVabonnenten
p1416
(dp1417
g4
I2
sg5
I0
ssVschwarz
p1418
(dp1419
g4
I0
sg5
I1
ssVterroristen
p1420
(dp1421
g4
I0
sg5
I1
ssVhung
p1422
(dp1423
g4
I0
sg5
I1
ssVkosten
p1424
(dp1425
g4
I1
sg5
I0
ssVrzte
p1426
(dp1427
g4
I0
sg5
I1
ssVmutma
p1428
(dp1429
g4
I1
sg5
I2
ssVentging
p1430
(dp1431
g4
I0
sg5
I1
ssVdeutschlands
p1432
(dp1433
g4
I2
sg5
I0
ssVbereit
p1434
(dp1435
g4
I2
sg5
I0
ssVaussage
p1436
(dp1437
g4
I1
sg5
I0
ssVclubs
p1438
(dp1439
g4
I0
sg5
I1
ssVkostet
p1440
(dp1441
g4
I2
sg5
I0
ssVwirft
p1442
(dp1443
g4
I1
sg5
I2
ssVsende
p1444
(dp1445
g4
I1
sg5
I0
ssVumt
p1446
(dp1447
g4
I1
sg5
I0
ssVaufs
p1448
(dp1449
g4
I1
sg5
I0
ssVhumor
p1450
(dp1451
g4
I0
sg5
I1
ssVums
p1452
(dp1453
g4
I2
sg5
I0
ssVwahrheit
p1454
(dp1455
g4
I1
sg5
I0
ssVverkaufte
p1456
(dp1457
g4
I1
sg5
I0
ssVsteigern
p1458
(dp1459
g4
I1
sg5
I0
ssVumen
p1460
(dp1461
g4
I0
sg5
I2
ssVstiften
p1462
(dp1463
g4
I0
sg5
I1
ssVgeneralstabs
p1464
(dp1465
g4
I0
sg5
I1
ssVmaliki
p1466
(dp1467
g4
I0
sg5
I5
ssVzahlreiche
p1468
(dp1469
g4
I1
sg5
I1
ssVmehrere
p1470
(dp1471
g4
I2
sg5
I0
ssVgebrauch
p1472
(dp1473
g4
I1
sg5
I0
ssVwahnsinn
p1474
(dp1475
g4
I1
sg5
I0
ssVverschwinden
p1476
(dp1477
g4
I1
sg5
I0
ssVjubil
p1478
(dp1479
g4
I1
sg5
I0
ssVversionen
p1480
(dp1481
g4
I3
sg5
I0
ssVradack
p1482
(dp1483
g4
I1
sg5
I0
ssVgebrauchsanleitung
p1484
(dp1485
g4
I0
sg5
I1
ssVarbeitet
p1486
(dp1487
g4
I2
sg5
I0
ssVriesen
p1488
(dp1489
g4
I1
sg5
I0
ssVreligionen
p1490
(dp1491
g4
I0
sg5
I1
ssVsselung
p1492
(dp1493
g4
I2
sg5
I0
ssVpost
p1494
(dp1495
g4
I1
sg5
I0
ssVsuper
p1496
(dp1497
g4
I1
sg5
I0
ssVbahn
p1498
(dp1499
g4
I0
sg5
I2
ssVbrazzo
p1500
(dp1501
g4
I0
sg5
I1
ssVzur
p1502
(dp1503
g4
I18
sg5
I10
ssVdarunter
p1504
(dp1505
g4
I1
sg5
I0
ssVkoordinieren
p1506
(dp1507
g4
I1
sg5
I0
ssVdonnerstageinen
p1508
(dp1509
g4
I1
sg5
I0
ssVgehandelt
p1510
(dp1511
g4
I0
sg5
I1
ssVtochter
p1512
(dp1513
g4
I1
sg5
I0
ssVmithilfe
p1514
(dp1515
g4
I1
sg5
I0
ssVplus
p1516
(dp1517
g4
I2
sg5
I0
ssVzug
p1518
(dp1519
g4
I0
sg5
I1
ssVerpressungstrojaner
p1520
(dp1521
g4
I1
sg5
I0
ssVzuh
p1522
(dp1523
g4
I0
sg5
I1
ssVzun
p1524
(dp1525
g4
I2
sg5
I0
ssVwarenhaus
p1526
(dp1527
g4
I0
sg5
I1
ssVzum
p1528
(dp1529
g4
I20
sg5
I9
ssVsyrien
p1530
(dp1531
g4
I0
sg5
I1
ssVeinbrecher
p1532
(dp1533
g4
I0
sg5
I1
ssVchte
p1534
(dp1535
g4
I4
sg5
I1
ssVkitkat
p1536
(dp1537
g4
I1
sg5
I0
ssVbritische
p1538
(dp1539
g4
I1
sg5
I0
ssVschalker
p1540
(dp1541
g4
I0
sg5
I1
ssVkrebskranken
p1542
(dp1543
g4
I1
sg5
I0
ssVferm
p1544
(dp1545
g4
I1
sg5
I0
ssVgeeignet
p1546
(dp1547
g4
I2
sg5
I0
ssVlieber
p1548
(dp1549
g4
I0
sg5
I1
ssVinternetgiganten
p1550
(dp1551
g4
I0
sg5
I1
ssVrendering
p1552
(dp1553
g4
I1
sg5
I0
ssVbedienoberfl
p1554
(dp1555
g4
I1
sg5
I0
ssVanbieter
p1556
(dp1557
g4
I1
sg5
I0
ssVwenigsten
p1558
(dp1559
g4
I0
sg5
I1
ssVberwachungs
p1560
(dp1561
g4
I1
sg5
I0
ssVabblitzen
p1562
(dp1563
g4
I0
sg5
I1
ssVdrogenkonsum
p1564
(dp1565
g4
I0
sg5
I1
ssVrkei
p1566
(dp1567
g4
I0
sg5
I1
ssVvorkommen
p1568
(dp1569
g4
I0
sg5
I1
ssVrken
p1570
(dp1571
g4
I0
sg5
I1
ssVsupport
p1572
(dp1573
g4
I1
sg5
I0
ssVtennis
p1574
(dp1575
g4
I0
sg5
I1
ssVfabrik
p1576
(dp1577
g4
I0
sg5
I1
ssVgig
p1578
(dp1579
g4
I1
sg5
I0
ssVgie
p1580
(dp1581
g4
I0
sg5
I1
ssVlage
p1582
(dp1583
g4
I0
sg5
I1
ssVwas
p1584
(dp1585
g4
I5
sg5
I7
ssVwar
p1586
(dp1587
g4
I5
sg5
I8
ssVnstig
p1588
(dp1589
g4
I1
sg5
I0
ssVsmartphonesystems
p1590
(dp1591
g4
I1
sg5
I0
ssVmordkomplott
p1592
(dp1593
g4
I0
sg5
I1
ssVspezial
p1594
(dp1595
g4
I1
sg5
I0
ssVentpuppen
p1596
(dp1597
g4
I1
sg5
I0
ssVbatman
p1598
(dp1599
g4
I1
sg5
I0
ssVsicherheitsgr
p1600
(dp1601
g4
I1
sg5
I0
ssVzeigt
p1602
(dp1603
g4
I5
sg5
I5
ssVtechnischen
p1604
(dp1605
g4
I2
sg5
I0
ssVtelefonat
p1606
(dp1607
g4
I0
sg5
I1
ssVdead
p1608
(dp1609
g4
I1
sg5
I0
ssVinfos
p1610
(dp1611
g4
I1
sg5
I0
ssVangesehen
p1612
(dp1613
g4
I1
sg5
I0
ssVeinzubinden
p1614
(dp1615
g4
I0
sg5
I1
ssVverurteilte
p1616
(dp1617
g4
I0
sg5
I1
ssVarme
p1618
(dp1619
g4
I0
sg5
I1
ssVisis
p1620
(dp1621
g4
I0
sg5
I5
ssVpiketty
p1622
(dp1623
g4
I0
sg5
I1
ssVkabelloser
p1624
(dp1625
g4
I1
sg5
I0
ssVmaximum
p1626
(dp1627
g4
I1
sg5
I0
ssVcrystal
p1628
(dp1629
g4
I0
sg5
I1
ssVteilweise
p1630
(dp1631
g4
I3
sg5
I0
ssVdringend
p1632
(dp1633
g4
I0
sg5
I1
ssVmails
p1634
(dp1635
g4
I2
sg5
I0
ssVbedienen
p1636
(dp1637
g4
I2
sg5
I0
ssVwichtiger
p1638
(dp1639
g4
I0
sg5
I1
ssVopenbsd
p1640
(dp1641
g4
I1
sg5
I0
ssVmoderne
p1642
(dp1643
g4
I1
sg5
I0
ssVzudem
p1644
(dp1645
g4
I5
sg5
I1
ssVcomputing
p1646
(dp1647
g4
I7
sg5
I0
ssVerscheinen
p1648
(dp1649
g4
I1
sg5
I0
ssVliche
p1650
(dp1651
g4
I0
sg5
I1
ssVfotografiert
p1652
(dp1653
g4
I0
sg5
I1
ssVgeliebtes
p1654
(dp1655
g4
I1
sg5
I0
ssVprivatkunden
p1656
(dp1657
g4
I1
sg5
I0
ssVklinsmann
p1658
(dp1659
g4
I1
sg5
I1
ssVunansehnlichen
p1660
(dp1661
g4
I0
sg5
I1
ssVwisst
p1662
(dp1663
g4
I1
sg5
I0
ssVunglaubliche
p1664
(dp1665
g4
I0
sg5
I1
ssVsimulations
p1666
(dp1667
g4
I1
sg5
I0
ssVaneinandergeraten
p1668
(dp1669
g4
I0
sg5
I1
ssVnnt
p1670
(dp1671
g4
I3
sg5
I0
ssVcheck
p1672
(dp1673
g4
I2
sg5
I0
ssVregime
p1674
(dp1675
g4
I0
sg5
I1
ssVbuzzwords
p1676
(dp1677
g4
I1
sg5
I0
ssVbajonett
p1678
(dp1679
g4
I1
sg5
I0
ssVpilotenjob
p1680
(dp1681
g4
I0
sg5
I1
ssVtzer
p1682
(dp1683
g4
I0
sg5
I1
ssVwollten
p1684
(dp1685
g4
I0
sg5
I1
ssVjony
p1686
(dp1687
g4
I1
sg5
I0
ssVpremier
p1688
(dp1689
g4
I0
sg5
I5
ssVreality
p1690
(dp1691
g4
I1
sg5
I0
ssVrzel
p1692
(dp1693
g4
I1
sg5
I0
ssVjong
p1694
(dp1695
g4
I0
sg5
I1
ssVdigital
p1696
(dp1697
g4
I1
sg5
I0
ssVtest
p1698
(dp1699
g4
I9
sg5
I0
ssVtig
p1700
(dp1701
g4
I1
sg5
I0
ssVrepublik
p1702
(dp1703
g4
I0
sg5
I1
ssVuntersucht
p1704
(dp1705
g4
I1
sg5
I0
ssVbellevue
p1706
(dp1707
g4
I0
sg5
I1
ssVamerikanische
p1708
(dp1709
g4
I1
sg5
I2
ssVlegte
p1710
(dp1711
g4
I1
sg5
I0
ssVdies
p1712
(dp1713
g4
I3
sg5
I0
ssVwichtigen
p1714
(dp1715
g4
I1
sg5
I0
ssVupdate
p1716
(dp1717
g4
I8
sg5
I0
ssVftskunden
p1718
(dp1719
g4
I1
sg5
I0
ssVtypbezeichnung
p1720
(dp1721
g4
I1
sg5
I0
ssVaward
p1722
(dp1723
g4
I1
sg5
I0
ssVmodell
p1724
(dp1725
g4
I6
sg5
I0
ssVfriedhelm
p1726
(dp1727
g4
I0
sg5
I1
ssVneonazi
p1728
(dp1729
g4
I0
sg5
I3
ssVscharf
p1730
(dp1731
g4
I0
sg5
I1
ssVkonservativen
p1732
(dp1733
g4
I0
sg5
I1
ssVglass
p1734
(dp1735
g4
I0
sg5
I1
ssVaufbau
p1736
(dp1737
g4
I1
sg5
I0
ssVreiche
p1738
(dp1739
g4
I0
sg5
I1
ssVkonami
p1740
(dp1741
g4
I1
sg5
I0
ssVausgemacht
p1742
(dp1743
g4
I1
sg5
I0
ssVmeilenstein
p1744
(dp1745
g4
I1
sg5
I0
ssVsyrische
p1746
(dp1747
g4
I0
sg5
I3
ssVleidet
p1748
(dp1749
g4
I0
sg5
I1
ssVschritt
p1750
(dp1751
g4
I0
sg5
I1
ssVkanzleramt
p1752
(dp1753
g4
I1
sg5
I0
ssVkicker
p1754
(dp1755
g4
I0
sg5
I1
ssVbearbeiten
p1756
(dp1757
g4
I2
sg5
I0
ssVbegeistert
p1758
(dp1759
g4
I1
sg5
I0
ssVweshalb
p1760
(dp1761
g4
I1
sg5
I0
ssVngerversionen
p1762
(dp1763
g4
I1
sg5
I0
ssVthemen
p1764
(dp1765
g4
I1
sg5
I0
ssVschnorcheln
p1766
(dp1767
g4
I1
sg5
I0
ssVllt
p1768
(dp1769
g4
I3
sg5
I0
ssValternativen
p1770
(dp1771
g4
I1
sg5
I0
ssVsieht
p1772
(dp1773
g4
I4
sg5
I1
ssVselbst
p1774
(dp1775
g4
I1
sg5
I3
ssVcreative
p1776
(dp1777
g4
I2
sg5
I0
ssVrot
p1778
(dp1779
g4
I1
sg5
I1
ssVverzahnung
p1780
(dp1781
g4
I1
sg5
I0
ssVmeisten
p1782
(dp1783
g4
I1
sg5
I0
ssVchtlichen
p1784
(dp1785
g4
I1
sg5
I0
ssVanstecken
p1786
(dp1787
g4
I0
sg5
I1
ssVbeste
p1788
(dp1789
g4
I2
sg5
I0
ssVmarkt
p1790
(dp1791
g4
I1
sg5
I3
ssVstigung
p1792
(dp1793
g4
I0
sg5
I1
ssVentdeckt
p1794
(dp1795
g4
I3
sg5
I0
ssVbrandgefahr
p1796
(dp1797
g4
I2
sg5
I0
ssVtusk
p1798
(dp1799
g4
I0
sg5
I3
ssVtarife
p1800
(dp1801
g4
I1
sg5
I0
ssVverliebt
p1802
(dp1803
g4
I1
sg5
I0
ssVstrafverfolger
p1804
(dp1805
g4
I1
sg5
I0
ssVwussten
p1806
(dp1807
g4
I1
sg5
I0
ssVsmartphone
p1808
(dp1809
g4
I16
sg5
I0
ssVsozialdemokratischen
p1810
(dp1811
g4
I0
sg5
I1
ssVihnen
p1812
(dp1813
g4
I9
sg5
I1
ssVparallelspiele
p1814
(dp1815
g4
I1
sg5
I0
ssVjahresende
p1816
(dp1817
g4
I1
sg5
I0
ssVspiegeln
p1818
(dp1819
g4
I1
sg5
I0
ssVpixma
p1820
(dp1821
g4
I1
sg5
I0
ssVminute
p1822
(dp1823
g4
I1
sg5
I0
ssVchtigten
p1824
(dp1825
g4
I1
sg5
I0
ssVklassisches
p1826
(dp1827
g4
I1
sg5
I0
ssVselber
p1828
(dp1829
g4
I0
sg5
I1
ssVmahl
p1830
(dp1831
g4
I1
sg5
I0
ssVmissbrauchsverdacht
p1832
(dp1833
g4
I0
sg5
I1
ssVdie
p1834
(dp1835
g4
I99
sg5
I71
ssVultrabook
p1836
(dp1837
g4
I1
sg5
I0
ssVbrother
p1838
(dp1839
g4
I1
sg5
I0
ssVstandards
p1840
(dp1841
g4
I1
sg5
I0
ssVtemperaturen
p1842
(dp1843
g4
I1
sg5
I0
ssVteam
p1844
(dp1845
g4
I2
sg5
I3
ssVhinlegen
p1846
(dp1847
g4
I1
sg5
I0
ssVsogar
p1848
(dp1849
g4
I4
sg5
I4
ssVklassischen
p1850
(dp1851
g4
I2
sg5
I0
ssVjedenfalls
p1852
(dp1853
g4
I1
sg5
I0
ssVhte
p1854
(dp1855
g4
I0
sg5
I1
ssVrevolution
p1856
(dp1857
g4
I1
sg5
I0
ssVhtc
p1858
(dp1859
g4
I2
sg5
I0
ssVdeutschen
p1860
(dp1861
g4
I2
sg5
I5
ssVkannte
p1862
(dp1863
g4
I0
sg5
I1
ssVangefordert
p1864
(dp1865
g4
I0
sg5
I1
ssVzeitversetzt
p1866
(dp1867
g4
I1
sg5
I0
ssVzahlen
p1868
(dp1869
g4
I0
sg5
I2
ssVdeutscher
p1870
(dp1871
g4
I0
sg5
I1
ssVerz
p1872
(dp1873
g4
I0
sg5
I1
ssVfehler
p1874
(dp1875
g4
I2
sg5
I0
ssVkompaktes
p1876
(dp1877
g4
I1
sg5
I0
ssVbrandenburger
p1878
(dp1879
g4
I0
sg5
I1
ssVvordergrund
p1880
(dp1881
g4
I1
sg5
I0
ssVafghanistan
p1882
(dp1883
g4
I0
sg5
I1
ssVstreicht
p1884
(dp1885
g4
I1
sg5
I0
ssVprivatbesitz
p1886
(dp1887
g4
I0
sg5
I1
ssVherer
p1888
(dp1889
g4
I1
sg5
I0
ssVwahl
p1890
(dp1891
g4
I0
sg5
I2
ssVauflagen
p1892
(dp1893
g4
I0
sg5
I1
ssVfotoplattform
p1894
(dp1895
g4
I1
sg5
I0
ssVstadt
p1896
(dp1897
g4
I1
sg5
I0
ssVheren
p1898
(dp1899
g4
I1
sg5
I0
ssVgelegenheit
p1900
(dp1901
g4
I0
sg5
I1
ssVrezepte
p1902
(dp1903
g4
I0
sg5
I1
ssVdurchstartendes
p1904
(dp1905
g4
I1
sg5
I0
ssVspitzenangebote
p1906
(dp1907
g4
I1
sg5
I0
ssVexplosion
p1908
(dp1909
g4
I0
sg5
I1
ssVtrennung
p1910
(dp1911
g4
I1
sg5
I0
ssVterrortrio
p1912
(dp1913
g4
I0
sg5
I1
ssVadressen
p1914
(dp1915
g4
I1
sg5
I0
ssVmakeup
p1916
(dp1917
g4
I0
sg5
I1
ssVchste
p1918
(dp1919
g4
I3
sg5
I0
ssVbringen
p1920
(dp1921
g4
I1
sg5
I0
ssVvorsichtig
p1922
(dp1923
g4
I1
sg5
I1
ssVerreicht
p1924
(dp1925
g4
I2
sg5
I2
ssVboten
p1926
(dp1927
g4
I0
sg5
I1
ssVunentschieden
p1928
(dp1929
g4
I0
sg5
I1
ssVdiebe
p1930
(dp1931
g4
I0
sg5
I1
ssVapache
p1932
(dp1933
g4
I1
sg5
I0
ssVzusammengetragen
p1934
(dp1935
g4
I2
sg5
I0
ssVbargeld
p1936
(dp1937
g4
I0
sg5
I1
ssVfreude
p1938
(dp1939
g4
I0
sg5
I1
ssVprivatleben
p1940
(dp1941
g4
I0
sg5
I1
ssVheikel
p1942
(dp1943
g4
I1
sg5
I0
ssVversetzt
p1944
(dp1945
g4
I0
sg5
I1
ssVsungsstufen
p1946
(dp1947
g4
I1
sg5
I0
ssVbeginn
p1948
(dp1949
g4
I0
sg5
I1
ssVeinschalten
p1950
(dp1951
g4
I1
sg5
I0
ssVdomains
p1952
(dp1953
g4
I1
sg5
I0
ssVextrem
p1954
(dp1955
g4
I2
sg5
I0
ssVneueste
p1956
(dp1957
g4
I3
sg5
I0
ssVminecraft
p1958
(dp1959
g4
I1
sg5
I0
ssVinstituts
p1960
(dp1961
g4
I1
sg5
I0
ssVwerbefestival
p1962
(dp1963
g4
I1
sg5
I0
ssVdistanz
p1964
(dp1965
g4
I1
sg5
I0
ssVplastikm
p1966
(dp1967
g4
I1
sg5
I0
ssVmodul
p1968
(dp1969
g4
I1
sg5
I0
ssVbleibt
p1970
(dp1971
g4
I2
sg5
I0
ssVweigert
p1972
(dp1973
g4
I0
sg5
I1
ssVbestimmt
p1974
(dp1975
g4
I1
sg5
I0
ssVmodus
p1976
(dp1977
g4
I1
sg5
I0
ssVschlummern
p1978
(dp1979
g4
I1
sg5
I0
ssVhamburger
p1980
(dp1981
g4
I0
sg5
I1
ssVmobil
p1982
(dp1983
g4
I1
sg5
I0
ssVwiderlicher
p1984
(dp1985
g4
I0
sg5
I2
ssVstimmung
p1986
(dp1987
g4
I1
sg5
I2
ssVkurden
p1988
(dp1989
g4
I0
sg5
I1
ssVgekauft
p1990
(dp1991
g4
I1
sg5
I0
ssVsteigt
p1992
(dp1993
g4
I0
sg5
I2
ssVdaneben
p1994
(dp1995
g4
I1
sg5
I0
ssVsports
p1996
(dp1997
g4
I1
sg5
I0
ssVberzahl
p1998
(dp1999
g4
I0
sg5
I1
ssVinsider
p2000
(dp2001
g4
I0
sg5
I1
ssVleuchtet
p2002
(dp2003
g4
I1
sg5
I0
ssViphone
p2004
(dp2005
g4
I3
sg5
I0
ssVunzumutbar
p2006
(dp2007
g4
I0
sg5
I1
ssVeinfacher
p2008
(dp2009
g4
I2
sg5
I0
ssVoffiziell
p2010
(dp2011
g4
I2
sg5
I1
ssVauftr
p2012
(dp2013
g4
I1
sg5
I0
ssVlaune
p2014
(dp2015
g4
I1
sg5
I0
ssVversucht
p2016
(dp2017
g4
I0
sg5
I1
ssVgegen
p2018
(dp2019
g4
I9
sg5
I20
ssVsymantec
p2020
(dp2021
g4
I1
sg5
I0
ssVscannt
p2022
(dp2023
g4
I1
sg5
I0
ssVgarantie
p2024
(dp2025
g4
I1
sg5
I0
ssVhaftpr
p2026
(dp2027
g4
I1
sg5
I0
ssVobersten
p2028
(dp2029
g4
I0
sg5
I1
ssVletzte
p2030
(dp2031
g4
I1
sg5
I1
ssVromantische
p2032
(dp2033
g4
I1
sg5
I0
ssVversuche
p2034
(dp2035
g4
I0
sg5
I1
ssVunsere
p2036
(dp2037
g4
I1
sg5
I2
ssVmetafoto
p2038
(dp2039
g4
I1
sg5
I0
ssVdamaskus
p2040
(dp2041
g4
I0
sg5
I1
ssVfolgen
p2042
(dp2043
g4
I0
sg5
I1
ssVmojang
p2044
(dp2045
g4
I1
sg5
I0
ssVantiviren
p2046
(dp2047
g4
I1
sg5
I0
ssVibm
p2048
(dp2049
g4
I1
sg5
I0
ssVumlauf
p2050
(dp2051
g4
I0
sg5
I1
ssVcar
p2052
(dp2053
g4
I1
sg5
I0
ssVdlinge
p2054
(dp2055
g4
I1
sg5
I0
ssVfernsehzuschauern
p2056
(dp2057
g4
I0
sg5
I1
ssVihre
p2058
(dp2059
g4
I5
sg5
I3
ssVmittwoch
p2060
(dp2061
g4
I2
sg5
I0
ssVstream
p2062
(dp2063
g4
I5
sg5
I0
ssVnexus
p2064
(dp2065
g4
I1
sg5
I0
ssVchip
p2066
(dp2067
g4
I3
sg5
I0
ssVfliegt
p2068
(dp2069
g4
I0
sg5
I1
ssVgranulierte
p2070
(dp2071
g4
I1
sg5
I0
ssVsamstag
p2072
(dp2073
g4
I0
sg5
I1
ssVlockt
p2074
(dp2075
g4
I1
sg5
I0
ssVtinten
p2076
(dp2077
g4
I2
sg5
I0
ssVspa
p2078
(dp2079
g4
I1
sg5
I1
ssVschlie
p2080
(dp2081
g4
I2
sg5
I0
ssVspd
p2082
(dp2083
g4
I0
sg5
I5
ssVschrecken
p2084
(dp2085
g4
I0
sg5
I1
ssVbesseres
p2086
(dp2087
g4
I1
sg5
I0
ssVdrama
p2088
(dp2089
g4
I0
sg5
I1
ssVanbringen
p2090
(dp2091
g4
I0
sg5
I1
ssVbezeichnet
p2092
(dp2093
g4
I1
sg5
I1
ssVjustizministerium
p2094
(dp2095
g4
I0
sg5
I1
ssVeurop
p2096
(dp2097
g4
I1
sg5
I3
ssVruder
p2098
(dp2099
g4
I2
sg5
I0
ssVeinzelfall
p2100
(dp2101
g4
I1
sg5
I0
ssVregelm
p2102
(dp2103
g4
I1
sg5
I0
ssVsundar
p2104
(dp2105
g4
I1
sg5
I0
ssVbegr
p2106
(dp2107
g4
I2
sg5
I4
ssVbesseren
p2108
(dp2109
g4
I3
sg5
I0
ssVvodafone
p2110
(dp2111
g4
I1
sg5
I0
ssVallerdings
p2112
(dp2113
g4
I4
sg5
I0
ssVproduct
p2114
(dp2115
g4
I1
sg5
I0
ssVdesigner
p2116
(dp2117
g4
I3
sg5
I0
ssVexplorer
p2118
(dp2119
g4
I2
sg5
I0
ssVprotection
p2120
(dp2121
g4
I1
sg5
I0
ssVteuren
p2122
(dp2123
g4
I1
sg5
I0
ssVraucher
p2124
(dp2125
g4
I0
sg5
I2
ssVmeinungen
p2126
(dp2127
g4
I0
sg5
I1
ssVmac
p2128
(dp2129
g4
I3
sg5
I0
ssVbislang
p2130
(dp2131
g4
I1
sg5
I0
ssVmag
p2132
(dp2133
g4
I1
sg5
I0
ssVspitzentreffen
p2134
(dp2135
g4
I0
sg5
I1
ssVmai
p2136
(dp2137
g4
I2
sg5
I0
ssVjahre
p2138
(dp2139
g4
I3
sg5
I2
ssVheroes
p2140
(dp2141
g4
I1
sg5
I0
ssVsatellitensystem
p2142
(dp2143
g4
I1
sg5
I0
ssVmal
p2144
(dp2145
g4
I5
sg5
I0
ssVman
p2146
(dp2147
g4
I4
sg5
I2
ssVneuheiten
p2148
(dp2149
g4
I1
sg5
I0
ssVsofort
p2150
(dp2151
g4
I2
sg5
I0
ssVremember
p2152
(dp2153
g4
I1
sg5
I0
ssVprivatsph
p2154
(dp2155
g4
I1
sg5
I0
ssVssl
p2156
(dp2157
g4
I1
sg5
I0
ssVpiloten
p2158
(dp2159
g4
I0
sg5
I1
ssVutert
p2160
(dp2161
g4
I1
sg5
I0
ssVngst
p2162
(dp2163
g4
I1
sg5
I0
ssVkurz
p2164
(dp2165
g4
I1
sg5
I0
ssVheimwerker
p2166
(dp2167
g4
I0
sg5
I1
ssVinnern
p2168
(dp2169
g4
I1
sg5
I0
ssVverschwand
p2170
(dp2171
g4
I1
sg5
I0
ssVsseldorf
p2172
(dp2173
g4
I0
sg5
I1
ssVblieb
p2174
(dp2175
g4
I0
sg5
I1
ssVdenken
p2176
(dp2177
g4
I1
sg5
I0
ssVkonom
p2178
(dp2179
g4
I0
sg5
I1
ssVrechnen
p2180
(dp2181
g4
I0
sg5
I1
ssVjubel
p2182
(dp2183
g4
I1
sg5
I0
ssVzerrt
p2184
(dp2185
g4
I1
sg5
I0
ssVtablets
p2186
(dp2187
g4
I2
sg5
I0
ssVspielst
p2188
(dp2189
g4
I1
sg5
I0
ssVaber
p2190
(dp2191
g4
I14
sg5
I10
ssVverlautbarungen
p2192
(dp2193
g4
I1
sg5
I0
ssVelber
p2194
(dp2195
g4
I0
sg5
I1
ssVverordnen
p2196
(dp2197
g4
I0
sg5
I1
ssVthermostat
p2198
(dp2199
g4
I1
sg5
I0
ssVgta
p2200
(dp2201
g4
I2
sg5
I0
ssVsitze
p2202
(dp2203
g4
I0
sg5
I1
ssVsatya
p2204
(dp2205
g4
I1
sg5
I0
ssVbescheiden
p2206
(dp2207
g4
I1
sg5
I0
ssVgte
p2208
(dp2209
g4
I0
sg5
I1
ssVhohe
p2210
(dp2211
g4
I1
sg5
I0
ssVduplex
p2212
(dp2213
g4
I1
sg5
I0
ssVorganisation
p2214
(dp2215
g4
I1
sg5
I0
ssVrebelliert
p2216
(dp2217
g4
I0
sg5
I1
ssVgen
p2218
(dp2219
g4
I1
sg5
I2
ssVgebracht
p2220
(dp2221
g4
I1
sg5
I0
ssVwindow
p2222
(dp2223
g4
I1
sg5
I0
ssVeinstiegsmodell
p2224
(dp2225
g4
I1
sg5
I0
ssVumgarnt
p2226
(dp2227
g4
I0
sg5
I1
ssVvolksrepublik
p2228
(dp2229
g4
I0
sg5
I1
ssVmail
p2230
(dp2231
g4
I2
sg5
I0
ssVbeherrscht
p2232
(dp2233
g4
I2
sg5
I0
ssVkommunizieren
p2234
(dp2235
g4
I1
sg5
I0
ssVmaik
p2236
(dp2237
g4
I1
sg5
I0
ssVstimmt
p2238
(dp2239
g4
I0
sg5
I1
ssVvergangenheit
p2240
(dp2241
g4
I0
sg5
I1
ssVvorhaben
p2242
(dp2243
g4
I0
sg5
I1
ssVbeim
p2244
(dp2245
g4
I7
sg5
I3
ssVkiller
p2246
(dp2247
g4
I0
sg5
I1
ssVdemokratisch
p2248
(dp2249
g4
I0
sg5
I1
ssVgemeldet
p2250
(dp2251
g4
I1
sg5
I0
ssVnation
p2252
(dp2253
g4
I1
sg5
I1
ssVinterview
p2254
(dp2255
g4
I0
sg5
I1
ssVkomponenten
p2256
(dp2257
g4
I2
sg5
I0
ssVvorbei
p2258
(dp2259
g4
I0
sg5
I1
ssVfahrverbot
p2260
(dp2261
g4
I0
sg5
I1
ssVnow
p2262
(dp2263
g4
I2
sg5
I0
ssVhall
p2264
(dp2265
g4
I1
sg5
I0
ssVausstrahlen
p2266
(dp2267
g4
I1
sg5
I0
ssVfernsehen
p2268
(dp2269
g4
I2
sg5
I0
ssVsparpreis
p2270
(dp2271
g4
I1
sg5
I0
ssVspielen
p2272
(dp2273
g4
I1
sg5
I1
ssVwaffenexporte
p2274
(dp2275
g4
I0
sg5
I1
ssVdeutschland
p2276
(dp2277
g4
I8
sg5
I5
ssVservern
p2278
(dp2279
g4
I1
sg5
I0
ssVfrontmann
p2280
(dp2281
g4
I1
sg5
I0
ssVkern
p2282
(dp2283
g4
I1
sg5
I0
ssVbiodidaktik
p2284
(dp2285
g4
I0
sg5
I1
ssVgenehmigt
p2286
(dp2287
g4
I0
sg5
I1
ssVrock
p2288
(dp2289
g4
I1
sg5
I0
ssVfernseher
p2290
(dp2291
g4
I3
sg5
I1
ssVspieler
p2292
(dp2293
g4
I1
sg5
I0
ssVspeichers
p2294
(dp2295
g4
I1
sg5
I0
ssVkann
p2296
(dp2297
g4
I4
sg5
I2
ssVverkauft
p2298
(dp2299
g4
I2
sg5
I0
ssVbergabe
p2300
(dp2301
g4
I1
sg5
I0
ssVhonduras
p2302
(dp2303
g4
I0
sg5
I2
ssVcorvey
p2304
(dp2305
g4
I0
sg5
I1
ssVrlich
p2306
(dp2307
g4
I1
sg5
I0
ssVsteuerbetr
p2308
(dp2309
g4
I0
sg5
I1
ssVerweiterter
p2310
(dp2311
g4
I1
sg5
I0
ssVhrte
p2312
(dp2313
g4
I1
sg5
I0
ssVspace
p2314
(dp2315
g4
I1
sg5
I0
ssVblu
p2316
(dp2317
g4
I1
sg5
I0
ssVoklahoma
p2318
(dp2319
g4
I0
sg5
I1
ssVnner
p2320
(dp2321
g4
I1
sg5
I0
ssVprofis
p2322
(dp2323
g4
I2
sg5
I0
ssVnnen
p2324
(dp2325
g4
I14
sg5
I1
ssVndler
p2326
(dp2327
g4
I1
sg5
I1
ssVmpfer
p2328
(dp2329
g4
I0
sg5
I1
ssVwirksamkeit
p2330
(dp2331
g4
I0
sg5
I1
ssVinternet
p2332
(dp2333
g4
I12
sg5
I1
ssVsicherheitsl
p2334
(dp2335
g4
I2
sg5
I0
ssVsensor
p2336
(dp2337
g4
I1
sg5
I0
ssVeinfallsreichtum
p2338
(dp2339
g4
I1
sg5
I0
ssVdrohne
p2340
(dp2341
g4
I1
sg5
I0
ssVmonster
p2342
(dp2343
g4
I0
sg5
I1
ssVinternetseiten
p2344
(dp2345
g4
I1
sg5
I0
ssVkooperieren
p2346
(dp2347
g4
I0
sg5
I2
ssVauch
p2348
(dp2349
g4
I31
sg5
I11
ssVspiel
p2350
(dp2351
g4
I3
sg5
I2
ssVreservierte
p2352
(dp2353
g4
I0
sg5
I1
ssVziel
p2354
(dp2355
g4
I1
sg5
I0
ssVklarer
p2356
(dp2357
g4
I1
sg5
I0
ssVvier
p2358
(dp2359
g4
I1
sg5
I1
ssVgott
p2360
(dp2361
g4
I1
sg5
I1
ssVweltdrogenbericht
p2362
(dp2363
g4
I0
sg5
I1
ssVkorrigieren
p2364
(dp2365
g4
I0
sg5
I1
ssVachtelfinale
p2366
(dp2367
g4
I2
sg5
I3
ssVngige
p2368
(dp2369
g4
I1
sg5
I0
ssVpappkarton
p2370
(dp2371
g4
I1
sg5
I0
ssVweltweiten
p2372
(dp2373
g4
I0
sg5
I1
ssVscheint
p2374
(dp2375
g4
I2
sg5
I0
ssVwiderspr
p2376
(dp2377
g4
I1
sg5
I0
ssVunkonventionellen
p2378
(dp2379
g4
I0
sg5
I1
ssVnormalerweise
p2380
(dp2381
g4
I1
sg5
I0
ssVckzug
p2382
(dp2383
g4
I0
sg5
I1
ssVwirken
p2384
(dp2385
g4
I0
sg5
I1
ssVabgeschlossen
p2386
(dp2387
g4
I1
sg5
I0
ssVgebiete
p2388
(dp2389
g4
I0
sg5
I1
ssVliefern
p2390
(dp2391
g4
I2
sg5
I1
ssVtipps
p2392
(dp2393
g4
I0
sg5
I1
ssVeinmaleffekten
p2394
(dp2395
g4
I1
sg5
I0
ssVpunkte
p2396
(dp2397
g4
I1
sg5
I0
ssVgereicht
p2398
(dp2399
g4
I0
sg5
I1
ssVleitete
p2400
(dp2401
g4
I2
sg5
I2
ssVhochaufl
p2402
(dp2403
g4
I1
sg5
I0
ssVone
p2404
(dp2405
g4
I5
sg5
I0
ssVsteckt
p2406
(dp2407
g4
I0
sg5
I1
ssVvideodienst
p2408
(dp2409
g4
I1
sg5
I0
ssVfast
p2410
(dp2411
g4
I1
sg5
I0
ssVbibliothek
p2412
(dp2413
g4
I1
sg5
I0
ssVschabaab
p2414
(dp2415
g4
I0
sg5
I1
ssVunternehmen
p2416
(dp2417
g4
I2
sg5
I0
ssVopen
p2418
(dp2419
g4
I2
sg5
I0
ssVcktreten
p2420
(dp2421
g4
I0
sg5
I1
ssVverlorenen
p2422
(dp2423
g4
I0
sg5
I1
ssVschafft
p2424
(dp2425
g4
I1
sg5
I1
ssVdoppelt
p2426
(dp2427
g4
I1
sg5
I1
ssVbiologische
p2428
(dp2429
g4
I0
sg5
I1
ssVnutzer
p2430
(dp2431
g4
I8
sg5
I0
ssVplastik
p2432
(dp2433
g4
I1
sg5
I0
ssVunterwirft
p2434
(dp2435
g4
I0
sg5
I1
ssVnnten
p2436
(dp2437
g4
I2
sg5
I4
ssVchecken
p2438
(dp2439
g4
I1
sg5
I0
ssVbefinden
p2440
(dp2441
g4
I1
sg5
I0
ssVnfte
p2442
(dp2443
g4
I0
sg5
I1
ssVvielseitigen
p2444
(dp2445
g4
I1
sg5
I0
ssVschlagen
p2446
(dp2447
g4
I1
sg5
I0
ssVzahlte
p2448
(dp2449
g4
I1
sg5
I0
ssVbefindet
p2450
(dp2451
g4
I0
sg5
I1
ssVnutzen
p2452
(dp2453
g4
I5
sg5
I0
ssVwilliams
p2454
(dp2455
g4
I0
sg5
I1
ssVfunktioniert
p2456
(dp2457
g4
I2
sg5
I0
ssVvorziehen
p2458
(dp2459
g4
I1
sg5
I0
ssVdrohe
p2460
(dp2461
g4
I0
sg5
I1
ssVnationaltrainer
p2462
(dp2463
g4
I0
sg5
I1
ssVautomatisch
p2464
(dp2465
g4
I3
sg5
I0
ssVpotenzial
p2466
(dp2467
g4
I0
sg5
I1
ssVfordert
p2468
(dp2469
g4
I0
sg5
I4
ssVschlecht
p2470
(dp2471
g4
I1
sg5
I1
ssVgrund
p2472
(dp2473
g4
I2
sg5
I0
ssVkonferenz
p2474
(dp2475
g4
I1
sg5
I0
ssVfordern
p2476
(dp2477
g4
I0
sg5
I1
ssVdroht
p2478
(dp2479
g4
I0
sg5
I2
ssVeiszeit
p2480
(dp2481
g4
I0
sg5
I1
ssVndung
p2482
(dp2483
g4
I1
sg5
I0
ssVfreunden
p2484
(dp2485
g4
I1
sg5
I0
ssVrze
p2486
(dp2487
g4
I3
sg5
I0
ssVbauen
p2488
(dp2489
g4
I1
sg5
I0
ssVfreuen
p2490
(dp2491
g4
I1
sg5
I0
ssVmotorrad
p2492
(dp2493
g4
I1
sg5
I0
ssVladetechnik
p2494
(dp2495
g4
I1
sg5
I0
ssVgij
p2496
(dp2497
g4
I0
sg5
I1
ssVsechs
p2498
(dp2499
g4
I5
sg5
I1
ssVcomputer
p2500
(dp2501
g4
I5
sg5
I1
ssVgrande
p2502
(dp2503
g4
I0
sg5
I1
ssVapples
p2504
(dp2505
g4
I1
sg5
I0
ssVstammen
p2506
(dp2507
g4
I2
sg5
I1
ssVeingrenzen
p2508
(dp2509
g4
I0
sg5
I1
ssVabstand
p2510
(dp2511
g4
I1
sg5
I0
ssVmissbrauch
p2512
(dp2513
g4
I0
sg5
I1
ssVkloster
p2514
(dp2515
g4
I0
sg5
I1
ssVbestehen
p2516
(dp2517
g4
I1
sg5
I0
ssVbooten
p2518
(dp2519
g4
I1
sg5
I0
ssVlich
p2520
(dp2521
g4
I1
sg5
I0
ssVangek
p2522
(dp2523
g4
I2
sg5
I0
ssVanf
p2524
(dp2525
g4
I1
sg5
I0
ssVvertrauen
p2526
(dp2527
g4
I0
sg5
I2
ssValles
p2528
(dp2529
g4
I4
sg5
I3
ssVsan
p2530
(dp2531
g4
I1
sg5
I0
ssVanl
p2532
(dp2533
g4
I1
sg5
I0
ssVwaffenruhe
p2534
(dp2535
g4
I0
sg5
I1
ssVpro
p2536
(dp2537
g4
I3
sg5
I0
ssVreferenzdesign
p2538
(dp2539
g4
I1
sg5
I0
ssVschattendasein
p2540
(dp2541
g4
I1
sg5
I0
ssVtasten
p2542
(dp2543
g4
I1
sg5
I0
ssVenergiewende
p2544
(dp2545
g4
I0
sg5
I1
ssVspendet
p2546
(dp2547
g4
I1
sg5
I0
ssVschetrockner
p2548
(dp2549
g4
I1
sg5
I0
ssVfreitag
p2550
(dp2551
g4
I0
sg5
I1
ssVallen
p2552
(dp2553
g4
I2
sg5
I0
ssVallem
p2554
(dp2555
g4
I2
sg5
I1
ssVkevin
p2556
(dp2557
g4
I0
sg5
I1
ssVbavaria
p2558
(dp2559
g4
I0
sg5
I1
ssVform
p2560
(dp2561
g4
I1
sg5
I0
ssVjahr
p2562
(dp2563
g4
I4
sg5
I2
ssVzollfahndung
p2564
(dp2565
g4
I0
sg5
I1
ssVhinweise
p2566
(dp2567
g4
I1
sg5
I0
ssVkutschaty
p2568
(dp2569
g4
I0
sg5
I2
ssVffnet
p2570
(dp2571
g4
I1
sg5
I0
ssVtoiletten
p2572
(dp2573
g4
I0
sg5
I1
ssVonline
p2574
(dp2575
g4
I8
sg5
I0
ssVperformance
p2576
(dp2577
g4
I1
sg5
I0
ssVbessert
p2578
(dp2579
g4
I1
sg5
I0
ssVzumindest
p2580
(dp2581
g4
I1
sg5
I0
ssVplattform
p2582
(dp2583
g4
I3
sg5
I0
ssVwaffenbauer
p2584
(dp2585
g4
I0
sg5
I1
ssVsurf
p2586
(dp2587
g4
I2
sg5
I0
ssVbetr
p2588
(dp2589
g4
I2
sg5
I0
ssVschwerpunkt
p2590
(dp2591
g4
I1
sg5
I0
ssVglasfasernetze
p2592
(dp2593
g4
I1
sg5
I0
ssVfliegengitter
p2594
(dp2595
g4
I0
sg5
I1
ssVverhindert
p2596
(dp2597
g4
I0
sg5
I1
ssVbreko
p2598
(dp2599
g4
I1
sg5
I0
ssVmachte
p2600
(dp2601
g4
I0
sg5
I1
ssVsehr
p2602
(dp2603
g4
I2
sg5
I2
ssVtekameras
p2604
(dp2605
g4
I0
sg5
I1
ssVverhilft
p2606
(dp2607
g4
I0
sg5
I1
ssVbahnfahren
p2608
(dp2609
g4
I0
sg5
I1
ssVpfeiltasten
p2610
(dp2611
g4
I1
sg5
I0
ssVamerica
p2612
(dp2613
g4
I0
sg5
I1
ssVlehnt
p2614
(dp2615
g4
I0
sg5
I2
ssVgemeinsame
p2616
(dp2617
g4
I1
sg5
I0
ssVfitnessfunktionen
p2618
(dp2619
g4
I1
sg5
I0
ssVnahme
p2620
(dp2621
g4
I0
sg5
I1
ssVangst
p2622
(dp2623
g4
I0
sg5
I1
ssVischen
p2624
(dp2625
g4
I0
sg5
I2
ssVaufgef
p2626
(dp2627
g4
I1
sg5
I0
ssVsale
p2628
(dp2629
g4
I3
sg5
I0
ssVmobilfunks
p2630
(dp2631
g4
I1
sg5
I0
ssVfahrzeug
p2632
(dp2633
g4
I1
sg5
I0
ssVrunde
p2634
(dp2635
g4
I0
sg5
I1
ssVmbel
p2636
(dp2637
g4
I0
sg5
I1
ssVhelfer
p2638
(dp2639
g4
I0
sg5
I1
ssVsolche
p2640
(dp2641
g4
I1
sg5
I0
ssVftigung
p2642
(dp2643
g4
I0
sg5
I1
ssVgewann
p2644
(dp2645
g4
I0
sg5
I1
ssVshop
p2646
(dp2647
g4
I1
sg5
I0
ssVhaushalte
p2648
(dp2649
g4
I0
sg5
I1
ssVrabatte
p2650
(dp2651
g4
I2
sg5
I0
ssVshow
p2652
(dp2653
g4
I1
sg5
I0
ssVwindenergie
p2654
(dp2655
g4
I1
sg5
I0
ssVverliert
p2656
(dp2657
g4
I0
sg5
I2
ssVherbst
p2658
(dp2659
g4
I4
sg5
I0
ssVaktion
p2660
(dp2661
g4
I1
sg5
I0
ssVthermostate
p2662
(dp2663
g4
I1
sg5
I0
ssVbereits
p2664
(dp2665
g4
I5
sg5
I2
ssVschweinefleisch
p2666
(dp2667
g4
I0
sg5
I1
ssVweitere
p2668
(dp2669
g4
I3
sg5
I2
ssVsetzt
p2670
(dp2671
g4
I4
sg5
I0
ssVslot
p2672
(dp2673
g4
I1
sg5
I0
ssVsteinmeier
p2674
(dp2675
g4
I0
sg5
I2
ssVbetrachten
p2676
(dp2677
g4
I1
sg5
I0
ssVoffen
p2678
(dp2679
g4
I0
sg5
I3
ssVzahl
p2680
(dp2681
g4
I0
sg5
I2
ssVvorrunde
p2682
(dp2683
g4
I2
sg5
I0
ssVrkere
p2684
(dp2685
g4
I1
sg5
I0
ssVinteressant
p2686
(dp2687
g4
I1
sg5
I0
ssVmedienbericht
p2688
(dp2689
g4
I1
sg5
I0
ssVumfrage
p2690
(dp2691
g4
I0
sg5
I2
ssVhandyhersteller
p2692
(dp2693
g4
I1
sg5
I0
ssVeinzug
p2694
(dp2695
g4
I1
sg5
I1
ssVger
p2696
(dp2697
g4
I18
sg5
I2
ssVbillionen
p2698
(dp2699
g4
I0
sg5
I1
ssVgep
p2700
(dp2701
g4
I1
sg5
I1
ssVgew
p2702
(dp2703
g4
I1
sg5
I0
ssVkreuzberg
p2704
(dp2705
g4
I0
sg5
I1
ssVgruppenphase
p2706
(dp2707
g4
I1
sg5
I0
ssVkonsolen
p2708
(dp2709
g4
I1
sg5
I0
ssVsst
p2710
(dp2711
g4
I7
sg5
I2
ssVstandardfunktion
p2712
(dp2713
g4
I1
sg5
I0
ssVverwaltungsgremien
p2714
(dp2715
g4
I1
sg5
I0
ssVgeb
p2716
(dp2717
g4
I1
sg5
I0
ssVgef
p2718
(dp2719
g4
I2
sg5
I1
ssVsse
p2720
(dp2721
g4
I1
sg5
I1
ssVwasser
p2722
(dp2723
g4
I1
sg5
I2
ssVgei
p2724
(dp2725
g4
I0
sg5
I1
ssVgeh
p2726
(dp2727
g4
I4
sg5
I2
ssVfliegengitters
p2728
(dp2729
g4
I0
sg5
I1
ssVjeher
p2730
(dp2731
g4
I1
sg5
I0
ssVstoppt
p2732
(dp2733
g4
I0
sg5
I1
ssVgel
p2734
(dp2735
g4
I1
sg5
I0
ssVbombe
p2736
(dp2737
g4
I0
sg5
I1
ssVoffensichtlich
p2738
(dp2739
g4
I1
sg5
I0
ssVlautst
p2740
(dp2741
g4
I1
sg5
I0
ssVshaqiri
p2742
(dp2743
g4
I0
sg5
I1
ssVsozialer
p2744
(dp2745
g4
I0
sg5
I2
ssVsollten
p2746
(dp2747
g4
I1
sg5
I0
ssVunterlief
p2748
(dp2749
g4
I1
sg5
I0
ssVflickt
p2750
(dp2751
g4
I1
sg5
I0
ssVxeon
p2752
(dp2753
g4
I1
sg5
I0
ssVstartseite
p2754
(dp2755
g4
I1
sg5
I0
ssVgesundheit
p2756
(dp2757
g4
I1
sg5
I0
ssVvision
p2758
(dp2759
g4
I2
sg5
I0
ssVnetz
p2760
(dp2761
g4
I1
sg5
I1
ssVsatte
p2762
(dp2763
g4
I2
sg5
I0
ssVbernehmen
p2764
(dp2765
g4
I1
sg5
I0
ssVragen
p2766
(dp2767
g4
I0
sg5
I1
ssVkernen
p2768
(dp2769
g4
I1
sg5
I0
ssVvermieterin
p2770
(dp2771
g4
I0
sg5
I1
ssVabgest
p2772
(dp2773
g4
I1
sg5
I0
ssVschwimmt
p2774
(dp2775
g4
I1
sg5
I0
ssVordnungspolitik
p2776
(dp2777
g4
I1
sg5
I0
ssVgangster
p2778
(dp2779
g4
I1
sg5
I0
ssVleichte
p2780
(dp2781
g4
I1
sg5
I0
ssVoberen
p2782
(dp2783
g4
I1
sg5
I0
ssVsport
p2784
(dp2785
g4
I2
sg5
I0
ssVliebsten
p2786
(dp2787
g4
I0
sg5
I1
ssVlabore
p2788
(dp2789
g4
I0
sg5
I1
ssVkerner
p2790
(dp2791
g4
I1
sg5
I0
ssVspitzenwerte
p2792
(dp2793
g4
I1
sg5
I0
ssVzukunft
p2794
(dp2795
g4
I1
sg5
I1
ssVzoll
p2796
(dp2797
g4
I5
sg5
I0
ssVabgeben
p2798
(dp2799
g4
I0
sg5
I1
ssVnnte
p2800
(dp2801
g4
I6
sg5
I1
ssVreview
p2802
(dp2803
g4
I1
sg5
I0
ssVunterst
p2804
(dp2805
g4
I2
sg5
I2
ssVnaturwissenschaften
p2806
(dp2807
g4
I0
sg5
I1
ssVwechsel
p2808
(dp2809
g4
I1
sg5
I0
ssVbeinkleid
p2810
(dp2811
g4
I1
sg5
I0
ssVkreativer
p2812
(dp2813
g4
I1
sg5
I0
ssVhrungsempfindliche
p2814
(dp2815
g4
I1
sg5
I0
ssVvollformatkamera
p2816
(dp2817
g4
I2
sg5
I0
ssVdempsey
p2818
(dp2819
g4
I0
sg5
I1
ssVziellos
p2820
(dp2821
g4
I0
sg5
I1
ssVjobs
p2822
(dp2823
g4
I1
sg5
I0
ssVaugust
p2824
(dp2825
g4
I0
sg5
I1
ssVmoment
p2826
(dp2827
g4
I1
sg5
I0
ssVaufsteigt
p2828
(dp2829
g4
I0
sg5
I1
ssVtut
p2830
(dp2831
g4
I1
sg5
I0
ssVsungen
p2832
(dp2833
g4
I1
sg5
I0
ssVklagt
p2834
(dp2835
g4
I1
sg5
I0
ssVfernsehmagazin
p2836
(dp2837
g4
I1
sg5
I0
ssVtigkeiten
p2838
(dp2839
g4
I0
sg5
I1
ssVtun
p2840
(dp2841
g4
I0
sg5
I1
ssVsparf
p2842
(dp2843
g4
I1
sg5
I0
ssVerkenntnisse
p2844
(dp2845
g4
I0
sg5
I1
ssVradikalreform
p2846
(dp2847
g4
I0
sg5
I1
ssVklage
p2848
(dp2849
g4
I0
sg5
I3
ssVquengelzone
p2850
(dp2851
g4
I0
sg5
I2
ssVverzichtet
p2852
(dp2853
g4
I1
sg5
I0
ssVabgeordnete
p2854
(dp2855
g4
I0
sg5
I1
ssVsuperstar
p2856
(dp2857
g4
I0
sg5
I1
ssVdarin
p2858
(dp2859
g4
I1
sg5
I1
ssVstimme
p2860
(dp2861
g4
I1
sg5
I0
ssVgriechenland
p2862
(dp2863
g4
I0
sg5
I1
ssVbundesebene
p2864
(dp2865
g4
I0
sg5
I1
ssVchtlich
p2866
(dp2867
g4
I1
sg5
I0
ssVpflegealltag
p2868
(dp2869
g4
I0
sg5
I1
ssVtrotz
p2870
(dp2871
g4
I0
sg5
I2
ssVschnell
p2872
(dp2873
g4
I2
sg5
I0
ssVwusste
p2874
(dp2875
g4
I0
sg5
I1
ssVverzichten
p2876
(dp2877
g4
I1
sg5
I0
ssVtextantr
p2878
(dp2879
g4
I1
sg5
I0
ssVjesselyn
p2880
(dp2881
g4
I1
sg5
I0
ssVsomit
p2882
(dp2883
g4
I1
sg5
I0
ssVinhalte
p2884
(dp2885
g4
I1
sg5
I0
ssVdaten
p2886
(dp2887
g4
I4
sg5
I1
ssVsauvage
p2888
(dp2889
g4
I1
sg5
I0
ssVbaden
p2890
(dp2891
g4
I0
sg5
I2
ssVrunden
p2892
(dp2893
g4
I3
sg5
I0
ssVteklassen
p2894
(dp2895
g4
I1
sg5
I0
ssVmirroring
p2896
(dp2897
g4
I1
sg5
I0
ssVantr
p2898
(dp2899
g4
I1
sg5
I0
ssVrundet
p2900
(dp2901
g4
I1
sg5
I0
ssVbildt
p2902
(dp2903
g4
I0
sg5
I1
ssVprofi
p2904
(dp2905
g4
I1
sg5
I0
ssVerdem
p2906
(dp2907
g4
I1
sg5
I0
ssVverwenden
p2908
(dp2909
g4
I1
sg5
I0
ssVckkehren
p2910
(dp2911
g4
I1
sg5
I0
ssVausziehen
p2912
(dp2913
g4
I0
sg5
I2
ssVamerikaner
p2914
(dp2915
g4
I0
sg5
I2
ssVoder
p2916
(dp2917
g4
I9
sg5
I7
ssVsunniten
p2918
(dp2919
g4
I0
sg5
I1
ssVmark
p2920
(dp2921
g4
I1
sg5
I0
ssVfieber
p2922
(dp2923
g4
I0
sg5
I1
ssVtesla
p2924
(dp2925
g4
I1
sg5
I0
ssVaufgrund
p2926
(dp2927
g4
I1
sg5
I0
ssVtrassen
p2928
(dp2929
g4
I0
sg5
I1
ssVneustart
p2930
(dp2931
g4
I0
sg5
I1
ssVabmahnung
p2932
(dp2933
g4
I1
sg5
I0
ssVviele
p2934
(dp2935
g4
I1
sg5
I3
ssVbereitstellen
p2936
(dp2937
g4
I1
sg5
I0
ssVskandals
p2938
(dp2939
g4
I0
sg5
I1
ssVluna
p2940
(dp2941
g4
I1
sg5
I0
ssVnavigationsger
p2942
(dp2943
g4
I1
sg5
I0
ssVtigen
p2944
(dp2945
g4
I2
sg5
I0
ssVsumme
p2946
(dp2947
g4
I1
sg5
I0
ssVdiscountern
p2948
(dp2949
g4
I1
sg5
I0
ssVnikon
p2950
(dp2951
g4
I4
sg5
I0
ssVbernimmt
p2952
(dp2953
g4
I2
sg5
I0
ssVminister
p2954
(dp2955
g4
I0
sg5
I2
ssVhalal
p2956
(dp2957
g4
I0
sg5
I1
ssVhierzulande
p2958
(dp2959
g4
I1
sg5
I0
ssVlandtagswahlen
p2960
(dp2961
g4
I0
sg5
I1
ssVschmidt
p2962
(dp2963
g4
I0
sg5
I1
ssVfpga
p2964
(dp2965
g4
I1
sg5
I0
ssVbereiten
p2966
(dp2967
g4
I0
sg5
I1
ssVgehen
p2968
(dp2969
g4
I0
sg5
I1
ssVtrick
p2970
(dp2971
g4
I0
sg5
I1
ssVpolens
p2972
(dp2973
g4
I0
sg5
I2
ssVautokonzern
p2974
(dp2975
g4
I1
sg5
I0
ssVhintergrund
p2976
(dp2977
g4
I1
sg5
I0
ssVvernetzte
p2978
(dp2979
g4
I2
sg5
I0
ssVglaubt
p2980
(dp2981
g4
I1
sg5
I0
ssVfenster
p2982
(dp2983
g4
I0
sg5
I1
ssVein
p2984
(dp2985
g4
I37
sg5
I20
ssVive
p2986
(dp2987
g4
I1
sg5
I0
ssVkostenlos
p2988
(dp2989
g4
I2
sg5
I0
ssVcanon
p2990
(dp2991
g4
I1
sg5
I0
ssVfeinde
p2992
(dp2993
g4
I0
sg5
I1
ssVmiddle
p2994
(dp2995
g4
I1
sg5
I0
ssVmiliz
p2996
(dp2997
g4
I0
sg5
I2
ssViwatch
p2998
(dp2999
g4
I1
sg5
I0
ssVumwandeln
p3000
(dp3001
g4
I0
sg5
I1
ssVjanuar
p3002
(dp3003
g4
I1
sg5
I0
ssVtechnology
p3004
(dp3005
g4
I1
sg5
I0
ssVfame
p3006
(dp3007
g4
I1
sg5
I0
ssVverpassen
p3008
(dp3009
g4
I2
sg5
I0
ssVargumente
p3010
(dp3011
g4
I0
sg5
I1
ssVentstanden
p3012
(dp3013
g4
I1
sg5
I0
ssVindividuell
p3014
(dp3015
g4
I1
sg5
I0
ssVmedia
p3016
(dp3017
g4
I2
sg5
I0
ssVzugleich
p3018
(dp3019
g4
I0
sg5
I1
ssVirakische
p3020
(dp3021
g4
I0
sg5
I1
ssVsomalia
p3022
(dp3023
g4
I0
sg5
I1
ssVevents
p3024
(dp3025
g4
I1
sg5
I0
ssVschwedischen
p3026
(dp3027
g4
I1
sg5
I0
ssVsnappytv
p3028
(dp3029
g4
I1
sg5
I0
ssVabgefangen
p3030
(dp3031
g4
I1
sg5
I1
ssVvizechef
p3032
(dp3033
g4
I0
sg5
I1
ssVputin
p3034
(dp3035
g4
I0
sg5
I2
ssVmegapixeln
p3036
(dp3037
g4
I1
sg5
I0
ssVsteuers
p3038
(dp3039
g4
I0
sg5
I1
ssVbitteren
p3040
(dp3041
g4
I1
sg5
I0
ssVdownloads
p3042
(dp3043
g4
I1
sg5
I0
ssVnderte
p3044
(dp3045
g4
I1
sg5
I0
ssVdabei
p3046
(dp3047
g4
I7
sg5
I4
ssVgreift
p3048
(dp3049
g4
I1
sg5
I2
ssVscheiterte
p3050
(dp3051
g4
I0
sg5
I1
ssVgrundsch
p3052
(dp3053
g4
I0
sg5
I1
ssVinformierte
p3054
(dp3055
g4
I1
sg5
I0
ssVhauptstadt
p3056
(dp3057
g4
I0
sg5
I1
ssVberichtet
p3058
(dp3059
g4
I1
sg5
I0
ssVneuorganisaiton
p3060
(dp3061
g4
I1
sg5
I0
ssVvereinbarten
p3062
(dp3063
g4
I0
sg5
I1
ssVstreit
p3064
(dp3065
g4
I0
sg5
I1
ssVvergangenen
p3066
(dp3067
g4
I1
sg5
I2
ssVaktualisieren
p3068
(dp3069
g4
I1
sg5
I0
ssVvertrauensvotum
p3070
(dp3071
g4
I0
sg5
I1
ssVsprachsteuerung
p3072
(dp3073
g4
I2
sg5
I0
ssVrden
p3074
(dp3075
g4
I1
sg5
I0
ssVmachen
p3076
(dp3077
g4
I5
sg5
I3
ssVmann
p3078
(dp3079
g4
I2
sg5
I2
ssVzielgerade
p3080
(dp3081
g4
I1
sg5
I0
ssViraks
p3082
(dp3083
g4
I0
sg5
I2
ssVmodem
p3084
(dp3085
g4
I1
sg5
I0
ssVdokumente
p3086
(dp3087
g4
I1
sg5
I0
ssVberichten
p3088
(dp3089
g4
I4
sg5
I1
ssVkampagne
p3090
(dp3091
g4
I2
sg5
I0
ssVsummer
p3092
(dp3093
g4
I2
sg5
I0
ssVaufzeichnungen
p3094
(dp3095
g4
I0
sg5
I1
ssVnachdem
p3096
(dp3097
g4
I1
sg5
I0
ssVbieten
p3098
(dp3099
g4
I4
sg5
I0
ssVnotwendig
p3100
(dp3101
g4
I0
sg5
I1
ssVbeachten
p3102
(dp3103
g4
I1
sg5
I0
ssVwollte
p3104
(dp3105
g4
I0
sg5
I1
ssVbietet
p3106
(dp3107
g4
I11
sg5
I0
ssVaussehen
p3108
(dp3109
g4
I1
sg5
I0
ssVschminkstifte
p3110
(dp3111
g4
I0
sg5
I1
ssVfotograf
p3112
(dp3113
g4
I0
sg5
I1
ssVgreasemonkey
p3114
(dp3115
g4
I1
sg5
I0
ssVsynthetischer
p3116
(dp3117
g4
I0
sg5
I2
ssVreduzierten
p3118
(dp3119
g4
I1
sg5
I0
ssVdruck
p3120
(dp3121
g4
I1
sg5
I4
ssVddeutschland
p3122
(dp3123
g4
I0
sg5
I1
ssVeinfallen
p3124
(dp3125
g4
I1
sg5
I0
ssVmehreren
p3126
(dp3127
g4
I1
sg5
I0
ssVpionier
p3128
(dp3129
g4
I1
sg5
I0
ssVfotografen
p3130
(dp3131
g4
I2
sg5
I0
ssVblog
p3132
(dp3133
g4
I4
sg5
I1
ssVltlich
p3134
(dp3135
g4
I2
sg5
I0
ssVreinfall
p3136
(dp3137
g4
I1
sg5
I0
ssVadolfs
p3138
(dp3139
g4
I0
sg5
I1
ssVrkische
p3140
(dp3141
g4
I0
sg5
I1
ssVnat
p3142
(dp3143
g4
I1
sg5
I0
ssVgering
p3144
(dp3145
g4
I1
sg5
I0
ssVvorangeprescht
p3146
(dp3147
g4
I0
sg5
I1
ssVneuen
p3148
(dp3149
g4
I12
sg5
I2
ssVamd
p3150
(dp3151
g4
I1
sg5
I0
ssVneuem
p3152
(dp3153
g4
I1
sg5
I0
ssVneuer
p3154
(dp3155
g4
I4
sg5
I1
ssVneues
p3156
(dp3157
g4
I8
sg5
I0
ssVverz
p3158
(dp3159
g4
I0
sg5
I1
ssVrpers
p3160
(dp3161
g4
I0
sg5
I1
ssVtraffic
p3162
(dp3163
g4
I1
sg5
I0
ssVgeschlossen
p3164
(dp3165
g4
I1
sg5
I0
ssVgeknackt
p3166
(dp3167
g4
I1
sg5
I0
ssVworld
p3168
(dp3169
g4
I1
sg5
I0
ssVtante
p3170
(dp3171
g4
I0
sg5
I1
ssVrear
p3172
(dp3173
g4
I1
sg5
I0
ssVpsu
p3174
(dp3175
g4
I1
sg5
I0
ssVvorschlag
p3176
(dp3177
g4
I0
sg5
I1
ssVentscheidungen
p3178
(dp3179
g4
I1
sg5
I0
ssVdienst
p3180
(dp3181
g4
I1
sg5
I0
ssVintel
p3182
(dp3183
g4
I2
sg5
I0
ssVforderung
p3184
(dp3185
g4
I0
sg5
I1
ssVserver
p3186
(dp3187
g4
I3
sg5
I0
ssVunbenutzt
p3188
(dp3189
g4
I1
sg5
I0
ssVblackberry
p3190
(dp3191
g4
I1
sg5
I0
ssVharam
p3192
(dp3193
g4
I0
sg5
I1
ssVdschihadistische
p3194
(dp3195
g4
I0
sg5
I1
ssVtower
p3196
(dp3197
g4
I1
sg5
I0
ssVpflege
p3198
(dp3199
g4
I0
sg5
I1
ssVkennen
p3200
(dp3201
g4
I1
sg5
I0
ssVpikant
p3202
(dp3203
g4
I0
sg5
I1
ssVdringen
p3204
(dp3205
g4
I0
sg5
I1
ssVsimulator
p3206
(dp3207
g4
I1
sg5
I0
ssVtitan
p3208
(dp3209
g4
I1
sg5
I0
ssVcurrentgen
p3210
(dp3211
g4
I1
sg5
I0
ssVhacks
p3212
(dp3213
g4
I1
sg5
I0
ssVhepunkt
p3214
(dp3215
g4
I1
sg5
I0
ssVsteuereinnahmen
p3216
(dp3217
g4
I0
sg5
I1
ssVxeons
p3218
(dp3219
g4
I2
sg5
I0
ssVsen
p3220
(dp3221
g4
I2
sg5
I0
ssVverschl
p3222
(dp3223
g4
I2
sg5
I0
ssVumsetzen
p3224
(dp3225
g4
I1
sg5
I0
ssVbesser
p3226
(dp3227
g4
I3
sg5
I1
ssVfreiheit
p3228
(dp3229
g4
I1
sg5
I0
ssVzugriff
p3230
(dp3231
g4
I2
sg5
I0
ssVgewonnen
p3232
(dp3233
g4
I1
sg5
I2
ssVidentisch
p3234
(dp3235
g4
I1
sg5
I0
ssVnationalmannschaft
p3236
(dp3237
g4
I0
sg5
I2
ssVpioneer
p3238
(dp3239
g4
I1
sg5
I0
ssVcritical
p3240
(dp3241
g4
I0
sg5
I1
ssVprovider
p3242
(dp3243
g4
I2
sg5
I0
ssVzuvor
p3244
(dp3245
g4
I1
sg5
I0
ssVvergeben
p3246
(dp3247
g4
I0
sg5
I1
ssVgoogles
p3248
(dp3249
g4
I4
sg5
I0
ssVffentlicher
p3250
(dp3251
g4
I0
sg5
I1
ssVministerium
p3252
(dp3253
g4
I0
sg5
I1
ssVbusiness
p3254
(dp3255
g4
I1
sg5
I0
ssVraus
p3256
(dp3257
g4
I0
sg5
I1
ssVpreissturz
p3258
(dp3259
g4
I1
sg5
I0
ssVchefs
p3260
(dp3261
g4
I0
sg5
I1
ssVseine
p3262
(dp3263
g4
I5
sg5
I9
ssVpaare
p3264
(dp3265
g4
I1
sg5
I0
ssVschie
p3266
(dp3267
g4
I0
sg5
I1
ssVgleichzeitig
p3268
(dp3269
g4
I1
sg5
I0
ssVfragen
p3270
(dp3271
g4
I0
sg5
I1
ssVstaunten
p3272
(dp3273
g4
I1
sg5
I0
ssVraum
p3274
(dp3275
g4
I0
sg5
I1
ssVhabe
p3276
(dp3277
g4
I2
sg5
I0
ssVpaart
p3278
(dp3279
g4
I1
sg5
I0
ssVtiefpassfilter
p3280
(dp3281
g4
I1
sg5
I0
ssVwurden
p3282
(dp3283
g4
I2
sg5
I1
ssVunesco
p3284
(dp3285
g4
I0
sg5
I1
ssVpanne
p3286
(dp3287
g4
I1
sg5
I0
ssVerneut
p3288
(dp3289
g4
I2
sg5
I1
ssVanfrage
p3290
(dp3291
g4
I1
sg5
I0
ssVstand
p3292
(dp3293
g4
I1
sg5
I0
ssVkanzlerin
p3294
(dp3295
g4
I0
sg5
I2
ssVleyen
p3296
(dp3297
g4
I0
sg5
I1
ssVnuri
p3298
(dp3299
g4
I0
sg5
I1
ssVengagiert
p3300
(dp3301
g4
I1
sg5
I0
ssVtoren
p3302
(dp3303
g4
I0
sg5
I1
ssVpartien
p3304
(dp3305
g4
I1
sg5
I0
ssVmikrofon
p3306
(dp3307
g4
I1
sg5
I0
ssVproteste
p3308
(dp3309
g4
I2
sg5
I0
ssVbundesrichter
p3310
(dp3311
g4
I0
sg5
I1
ssVvolksvertreter
p3312
(dp3313
g4
I1
sg5
I0
ssVuntersuchten
p3314
(dp3315
g4
I1
sg5
I0
ssVchtiger
p3316
(dp3317
g4
I0
sg5
I1
ssVluft
p3318
(dp3319
g4
I0
sg5
I1
ssVbitte
p3320
(dp3321
g4
I1
sg5
I0
ssVbelastend
p3322
(dp3323
g4
I0
sg5
I1
ssVvirenscanner
p3324
(dp3325
g4
I1
sg5
I0
ssVsorgte
p3326
(dp3327
g4
I0
sg5
I1
ssVwelches
p3328
(dp3329
g4
I1
sg5
I0
ssVneuerungen
p3330
(dp3331
g4
I2
sg5
I0
ssVher
p3332
(dp3333
g4
I1
sg5
I3
ssVkindesmissbrauch
p3334
(dp3335
g4
I0
sg5
I2
ssVunterricht
p3336
(dp3337
g4
I0
sg5
I1
ssVstark
p3338
(dp3339
g4
I1
sg5
I0
ssVversteher
p3340
(dp3341
g4
I0
sg5
I1
ssVlos
p3342
(dp3343
g4
I1
sg5
I0
ssVbeleidigt
p3344
(dp3345
g4
I0
sg5
I1
ssVtiefe
p3346
(dp3347
g4
I1
sg5
I0
ssVhei
p3348
(dp3349
g4
I2
sg5
I1
ssVwelchen
p3350
(dp3351
g4
I1
sg5
I0
ssVrechnet
p3352
(dp3353
g4
I0
sg5
I1
ssVverschnupft
p3354
(dp3355
g4
I0
sg5
I1
ssVbesucht
p3356
(dp3357
g4
I0
sg5
I1
ssVglobalisierung
p3358
(dp3359
g4
I0
sg5
I1
ssVgibt
p3360
(dp3361
g4
I8
sg5
I2
ssVchristdemokraten
p3362
(dp3363
g4
I0
sg5
I1
ssVringen
p3364
(dp3365
g4
I0
sg5
I1
ssVverhaftet
p3366
(dp3367
g4
I0
sg5
I1
ssVdittmar
p3368
(dp3369
g4
I0
sg5
I1
ssVvergab
p3370
(dp3371
g4
I0
sg5
I1
ssVunerprobte
p3372
(dp3373
g4
I0
sg5
I1
ssVschickt
p3374
(dp3375
g4
I1
sg5
I0
ssVpulk
p3376
(dp3377
g4
I0
sg5
I1
ssVfeuer
p3378
(dp3379
g4
I1
sg5
I0
ssVwutb
p3380
(dp3381
g4
I0
sg5
I1
ssVkoalitionskrach
p3382
(dp3383
g4
I0
sg5
I1
ssVentwicklerprogramm
p3384
(dp3385
g4
I1
sg5
I0
ssVarbeitsplatzabbau
p3386
(dp3387
g4
I0
sg5
I1
ssVregimes
p3388
(dp3389
g4
I0
sg5
I1
ssVberuflicher
p3390
(dp3391
g4
I1
sg5
I0
ssVengine
p3392
(dp3393
g4
I2
sg5
I0
ssVkennzeichnung
p3394
(dp3395
g4
I1
sg5
I0
ssVkeine
p3396
(dp3397
g4
I5
sg5
I3
ssVtode
p3398
(dp3399
g4
I0
sg5
I1
ssVvideos
p3400
(dp3401
g4
I1
sg5
I0
ssVerinnern
p3402
(dp3403
g4
I0
sg5
I1
ssVzufriedenheit
p3404
(dp3405
g4
I0
sg5
I1
ssVvorw
p3406
(dp3407
g4
I1
sg5
I0
ssVheftiger
p3408
(dp3409
g4
I0
sg5
I1
ssVsobald
p3410
(dp3411
g4
I1
sg5
I0
ssVleaker
p3412
(dp3413
g4
I1
sg5
I0
ssVlinken
p3414
(dp3415
g4
I0
sg5
I1
ssVversperrt
p3416
(dp3417
g4
I0
sg5
I1
ssVvorg
p3418
(dp3419
g4
I1
sg5
I0
ssVfahrverboten
p3420
(dp3421
g4
I0
sg5
I2
ssVfilm
p3422
(dp3423
g4
I0
sg5
I1
ssVvertrauensabstimmung
p3424
(dp3425
g4
I0
sg5
I1
ssVerfolgreich
p3426
(dp3427
g4
I1
sg5
I0
ssVverizon
p3428
(dp3429
g4
I2
sg5
I0
ssVbedr
p3430
(dp3431
g4
I0
sg5
I2
ssVrichtung
p3432
(dp3433
g4
I2
sg5
I0
ssVpappe
p3434
(dp3435
g4
I1
sg5
I0
ssVarbeiten
p3436
(dp3437
g4
I0
sg5
I1
ssVentwickeln
p3438
(dp3439
g4
I0
sg5
I1
ssVfungstermin
p3440
(dp3441
g4
I1
sg5
I0
ssVentwickelt
p3442
(dp3443
g4
I4
sg5
I0
ssVsperren
p3444
(dp3445
g4
I0
sg5
I1
ssVgrundlegend
p3446
(dp3447
g4
I0
sg5
I1
ssVeigentlich
p3448
(dp3449
g4
I2
sg5
I0
ssVgames
p3450
(dp3451
g4
I5
sg5
I0
ssVetwas
p3452
(dp3453
g4
I1
sg5
I1
ssVfazit
p3454
(dp3455
g4
I5
sg5
I0
ssVwerkzeuge
p3456
(dp3457
g4
I1
sg5
I0
ssVonkyo
p3458
(dp3459
g4
I1
sg5
I0
ssVgipfel
p3460
(dp3461
g4
I0
sg5
I1
ssVgeleast
p3462
(dp3463
g4
I1
sg5
I0
ssVleisten
p3464
(dp3465
g4
I1
sg5
I0
ssVarchitecture
p3466
(dp3467
g4
I1
sg5
I0
ssVderzeit
p3468
(dp3469
g4
I2
sg5
I0
ssVubern
p3470
(dp3471
g4
I1
sg5
I0
ssVtricks
p3472
(dp3473
g4
I1
sg5
I0
ssVsuchmaschinenriese
p3474
(dp3475
g4
I1
sg5
I0
ssVgeniale
p3476
(dp3477
g4
I0
sg5
I1
ssVspanien
p3478
(dp3479
g4
I1
sg5
I0
ssVmass
p3480
(dp3481
g4
I0
sg5
I1
ssVzunimmt
p3482
(dp3483
g4
I1
sg5
I0
ssVkonzept
p3484
(dp3485
g4
I0
sg5
I1
ssVcpu
p3486
(dp3487
g4
I1
sg5
I0
ssVonkel
p3488
(dp3489
g4
I0
sg5
I1
ssVall
p3490
(dp3491
g4
I2
sg5
I0
ssVftlinge
p3492
(dp3493
g4
I0
sg5
I1
ssVsch
p3494
(dp3495
g4
I3
sg5
I5
ssVrohre
p3496
(dp3497
g4
I0
sg5
I1
ssVfachmesse
p3498
(dp3499
g4
I1
sg5
I0
ssVuno
p3500
(dp3501
g4
I0
sg5
I1
ssVerfahren
p3502
(dp3503
g4
I0
sg5
I3
ssVteuerste
p3504
(dp3505
g4
I0
sg5
I1
ssVtote
p3506
(dp3507
g4
I0
sg5
I1
ssVarge
p3508
(dp3509
g4
I0
sg5
I1
ssVhilferufen
p3510
(dp3511
g4
I0
sg5
I1
ssValt
p3512
(dp3513
g4
I1
sg5
I0
ssVsung
p3514
(dp3515
g4
I3
sg5
I1
ssVauslastung
p3516
(dp3517
g4
I1
sg5
I0
ssVirak
p3518
(dp3519
g4
I0
sg5
I6
ssVempfindlich
p3520
(dp3521
g4
I1
sg5
I0
ssVflatrates
p3522
(dp3523
g4
I1
sg5
I0
ssVbermittelt
p3524
(dp3525
g4
I0
sg5
I2
ssVdsm
p3526
(dp3527
g4
I1
sg5
I0
ssVwunden
p3528
(dp3529
g4
I1
sg5
I0
ssVnord
p3530
(dp3531
g4
I2
sg5
I1
ssVghana
p3532
(dp3533
g4
I0
sg5
I1
ssVsendeplan
p3534
(dp3535
g4
I3
sg5
I0
ssVvorurteile
p3536
(dp3537
g4
I1
sg5
I0
ssVfar
p3538
(dp3539
g4
I1
sg5
I0
ssVgheit
p3540
(dp3541
g4
I0
sg5
I1
ssVsupercomputer
p3542
(dp3543
g4
I2
sg5
I0
ssVaufnahmen
p3544
(dp3545
g4
I0
sg5
I1
ssVrichtig
p3546
(dp3547
g4
I1
sg5
I0
ssVaktualisierung
p3548
(dp3549
g4
I1
sg5
I0
ssVleistungsschutzrecht
p3550
(dp3551
g4
I2
sg5
I0
ssVdschihadisten
p3552
(dp3553
g4
I0
sg5
I1
ssVignorierten
p3554
(dp3555
g4
I0
sg5
I1
ssVschade
p3556
(dp3557
g4
I1
sg5
I0
ssVverf
p3558
(dp3559
g4
I2
sg5
I0
ssVsony
p3560
(dp3561
g4
I4
sg5
I0
ssVverk
p3562
(dp3563
g4
I2
sg5
I1
ssVticker
p3564
(dp3565
g4
I1
sg5
I0
ssVverl
p3566
(dp3567
g4
I1
sg5
I0
ssVstrand
p3568
(dp3569
g4
I1
sg5
I0
ssVregierung
p3570
(dp3571
g4
I1
sg5
I4
ssVworden
p3572
(dp3573
g4
I1
sg5
I2
ssVentwicklerkonferenz
p3574
(dp3575
g4
I6
sg5
I0
ssVvize
p3576
(dp3577
g4
I0
sg5
I1
ssVeingeben
p3578
(dp3579
g4
I0
sg5
I1
ssVnetzwelt
p3580
(dp3581
g4
I5
sg5
I0
ssVdrehkreuz
p3582
(dp3583
g4
I1
sg5
I0
ssVachtelfinals
p3584
(dp3585
g4
I0
sg5
I1
ssVlaut
p3586
(dp3587
g4
I2
sg5
I5
ssVprogramme
p3588
(dp3589
g4
I5
sg5
I0
ssVarbeitsplatz
p3590
(dp3591
g4
I1
sg5
I0
ssVten
p3592
(dp3593
g4
I5
sg5
I2
ssVimmerhin
p3594
(dp3595
g4
I2
sg5
I0
ssVaktuellen
p3596
(dp3597
g4
I3
sg5
I0
ssVeinstigen
p3598
(dp3599
g4
I0
sg5
I1
ssVdesign
p3600
(dp3601
g4
I5
sg5
I0
ssVdisplays
p3602
(dp3603
g4
I1
sg5
I0
ssVplugins
p3604
(dp3605
g4
I1
sg5
I0
ssVter
p3606
(dp3607
g4
I0
sg5
I2
ssVgerichte
p3608
(dp3609
g4
I1
sg5
I0
ssVbrille
p3610
(dp3611
g4
I1
sg5
I0
ssVwachsenden
p3612
(dp3613
g4
I0
sg5
I1
ssVohne
p3614
(dp3615
g4
I6
sg5
I3
ssVbilligeres
p3616
(dp3617
g4
I1
sg5
I0
ssVabf
p3618
(dp3619
g4
I1
sg5
I0
ssVsoldaten
p3620
(dp3621
g4
I0
sg5
I1
ssVzweimal
p3622
(dp3623
g4
I1
sg5
I0
ssVoftmals
p3624
(dp3625
g4
I1
sg5
I0
ssVhinaus
p3626
(dp3627
g4
I1
sg5
I0
ssVkreuzberger
p3628
(dp3629
g4
I0
sg5
I1
ssVtestsieger
p3630
(dp3631
g4
I2
sg5
I0
ssVjurist
p3632
(dp3633
g4
I0
sg5
I1
ssVpublic
p3634
(dp3635
g4
I1
sg5
I0
ssVjede
p3636
(dp3637
g4
I3
sg5
I1
ssVprimark
p3638
(dp3639
g4
I0
sg5
I1
ssVmacht
p3640
(dp3641
g4
I3
sg5
I4
ssVausbauen
p3642
(dp3643
g4
I0
sg5
I1
ssVtebrand
p3644
(dp3645
g4
I2
sg5
I0
ssVsubstanzen
p3646
(dp3647
g4
I0
sg5
I1
ssVberschwemmen
p3648
(dp3649
g4
I0
sg5
I1
ssVvermeldete
p3650
(dp3651
g4
I1
sg5
I0
ssVstaatsanwaltschaft
p3652
(dp3653
g4
I0
sg5
I1
ssVsurfen
p3654
(dp3655
g4
I3
sg5
I0
ssVver
p3656
(dp3657
g4
I6
sg5
I1
ssVabgeordneten
p3658
(dp3659
g4
I0
sg5
I1
ssVndigt
p3660
(dp3661
g4
I7
sg5
I0
ssVteilzeitchef
p3662
(dp3663
g4
I0
sg5
I1
ssVrskandal
p3664
(dp3665
g4
I0
sg5
I2
ssVmonats
p3666
(dp3667
g4
I0
sg5
I1
ssVstellt
p3668
(dp3669
g4
I7
sg5
I2
ssVangebot
p3670
(dp3671
g4
I2
sg5
I0
ssVbesitzen
p3672
(dp3673
g4
I1
sg5
I0
ssVnordrhein
p3674
(dp3675
g4
I0
sg5
I2
ssVkriegshetzer
p3676
(dp3677
g4
I0
sg5
I2
ssVbase
p3678
(dp3679
g4
I1
sg5
I0
ssVmonate
p3680
(dp3681
g4
I1
sg5
I0
ssVdurch
p3682
(dp3683
g4
I4
sg5
I3
ssVsocial
p3684
(dp3685
g4
I1
sg5
I0
ssVvorwurf
p3686
(dp3687
g4
I0
sg5
I1
ssVgericht
p3688
(dp3689
g4
I1
sg5
I0
ssVtrainer
p3690
(dp3691
g4
I0
sg5
I2
ssVaufl
p3692
(dp3693
g4
I2
sg5
I0
ssVbrauchen
p3694
(dp3695
g4
I0
sg5
I1
ssVhrer
p3696
(dp3697
g4
I1
sg5
I1
ssVprozess
p3698
(dp3699
g4
I0
sg5
I1
ssVauff
p3700
(dp3701
g4
I1
sg5
I0
ssVrke
p3702
(dp3703
g4
I1
sg5
I0
ssVregiment
p3704
(dp3705
g4
I0
sg5
I1
ssVarbeiter
p3706
(dp3707
g4
I1
sg5
I0
ssVdeswegen
p3708
(dp3709
g4
I0
sg5
I1
ssVvorsto
p3710
(dp3711
g4
I1
sg5
I1
ssVsentiert
p3712
(dp3713
g4
I3
sg5
I0
ssVhren
p3714
(dp3715
g4
I4
sg5
I0
ssVkwesi
p3716
(dp3717
g4
I0
sg5
I1
ssVpreissenkung
p3718
(dp3719
g4
I1
sg5
I0
ssVraff
p3720
(dp3721
g4
I0
sg5
I1
ssVentscheidung
p3722
(dp3723
g4
I1
sg5
I1
ssVansto
p3724
(dp3725
g4
I1
sg5
I0
ssVkuschelkurs
p3726
(dp3727
g4
I0
sg5
I1
ssVstreiten
p3728
(dp3729
g4
I0
sg5
I1
ssVstungslobby
p3730
(dp3731
g4
I0
sg5
I1
ssVspannung
p3732
(dp3733
g4
I1
sg5
I0
ssVhirsch
p3734
(dp3735
g4
I0
sg5
I1
ssVerheben
p3736
(dp3737
g4
I0
sg5
I1
ssVsondern
p3738
(dp3739
g4
I3
sg5
I1
ssVobjektiven
p3740
(dp3741
g4
I1
sg5
I0
ssVvierte
p3742
(dp3743
g4
I1
sg5
I0
ssVwindenergieerzeugern
p3744
(dp3745
g4
I1
sg5
I0
ssVmozilla
p3746
(dp3747
g4
I2
sg5
I0
ssVtelefondaten
p3748
(dp3749
g4
I1
sg5
I2
ssVstick
p3750
(dp3751
g4
I1
sg5
I0
ssVmedienberichten
p3752
(dp3753
g4
I0
sg5
I2
ssVschweiz
p3754
(dp3755
g4
I1
sg5
I2
ssVknipsen
p3756
(dp3757
g4
I1
sg5
I0
ssVtesten
p3758
(dp3759
g4
I1
sg5
I0
ssVnguru
p3760
(dp3761
g4
I0
sg5
I1
ssVfitnesssensoren
p3762
(dp3763
g4
I1
sg5
I0
ssVzeichen
p3764
(dp3765
g4
I3
sg5
I0
ssVmediziner
p3766
(dp3767
g4
I0
sg5
I1
ssVkreativ
p3768
(dp3769
g4
I1
sg5
I0
ssVder
p3770
(dp3771
g4
I100
sg5
I71
ssVdes
p3772
(dp3773
g4
I23
sg5
I7
ssVdem
p3774
(dp3775
g4
I35
sg5
I11
ssVden
p3776
(dp3777
g4
I54
sg5
I29
ssVdeb
p3778
(dp3779
g4
I1
sg5
I0
ssVtabelle
p3780
(dp3781
g4
I1
sg5
I0
ssVeingeleitet
p3782
(dp3783
g4
I1
sg5
I0
ssVchlich
p3784
(dp3785
g4
I5
sg5
I0
ssVwieder
p3786
(dp3787
g4
I8
sg5
I1
ssVdragonfly
p3788
(dp3789
g4
I1
sg5
I0
ssVmissbraucht
p3790
(dp3791
g4
I0
sg5
I3
ssVspielte
p3792
(dp3793
g4
I0
sg5
I1
ssVbritannien
p3794
(dp3795
g4
I0
sg5
I1
ssVspeckig
p3796
(dp3797
g4
I1
sg5
I0
ssVmehr
p3798
(dp3799
g4
I19
sg5
I14
ssVinterconnect
p3800
(dp3801
g4
I1
sg5
I0
ssVclint
p3802
(dp3803
g4
I0
sg5
I1
ssVgeheimdienstskandal
p3804
(dp3805
g4
I1
sg5
I0
ssVdrohen
p3806
(dp3807
g4
I0
sg5
I1
ssVeinzelkritik
p3808
(dp3809
g4
I0
sg5
I1
ssVgreenpeace
p3810
(dp3811
g4
I0
sg5
I1
ssVdienstag
p3812
(dp3813
g4
I3
sg5
I0
ssVzweigstelle
p3814
(dp3815
g4
I0
sg5
I1
ssVreichte
p3816
(dp3817
g4
I0
sg5
I1
ssVlahmlegen
p3818
(dp3819
g4
I1
sg5
I0
ssVcsu
p3820
(dp3821
g4
I0
sg5
I1
ssVssel
p3822
(dp3823
g4
I2
sg5
I0
ssVssen
p3824
(dp3825
g4
I1
sg5
I2
ssVplant
p3826
(dp3827
g4
I1
sg5
I0
ssVseoul
p3828
(dp3829
g4
I1
sg5
I0
ssVdeutlich
p3830
(dp3831
g4
I5
sg5
I0
ssVminus
p3832
(dp3833
g4
I0
sg5
I1
ssVblicke
p3834
(dp3835
g4
I1
sg5
I0
ssVtages
p3836
(dp3837
g4
I1
sg5
I0
ssVknappen
p3838
(dp3839
g4
I1
sg5
I0
ssVbundesstaat
p3840
(dp3841
g4
I0
sg5
I1
ssVentwickler
p3842
(dp3843
g4
I2
sg5
I0
ssVbenotet
p3844
(dp3845
g4
I0
sg5
I1
ssVtagen
p3846
(dp3847
g4
I0
sg5
I1
ssVmaas
p3848
(dp3849
g4
I0
sg5
I2
ssVriesensozialstation
p3850
(dp3851
g4
I0
sg5
I1
ssVfrei
p3852
(dp3853
g4
I0
sg5
I1
ssVteile
p3854
(dp3855
g4
I0
sg5
I1
ssVstabil
p3856
(dp3857
g4
I0
sg5
I1
ssVkaufen
p3858
(dp3859
g4
I1
sg5
I1
ssVerdgas
p3860
(dp3861
g4
I0
sg5
I1
ssVkein
p3862
(dp3863
g4
I4
sg5
I1
ssVbersichtlich
p3864
(dp3865
g4
I3
sg5
I0
ssVfesto
p3866
(dp3867
g4
I0
sg5
I1
ssVbugs
p3868
(dp3869
g4
I1
sg5
I0
ssVhomosexuelle
p3870
(dp3871
g4
I1
sg5
I0
ssVbroadcasting
p3872
(dp3873
g4
I1
sg5
I0
ssVnzen
p3874
(dp3875
g4
I1
sg5
I0
ssVnftiger
p3876
(dp3877
g4
I0
sg5
I1
ssVnvidia
p3878
(dp3879
g4
I2
sg5
I0
ssVklammert
p3880
(dp3881
g4
I0
sg5
I1
ssVskizzieren
p3882
(dp3883
g4
I1
sg5
I0
ssVverkauften
p3884
(dp3885
g4
I1
sg5
I0
ssVdruckluftwaffen
p3886
(dp3887
g4
I1
sg5
I0
ssVphotoshop
p3888
(dp3889
g4
I1
sg5
I0
ssVcken
p3890
(dp3891
g4
I1
sg5
I0
ssVlehrpl
p3892
(dp3893
g4
I0
sg5
I1
ssVrand
p3894
(dp3895
g4
I0
sg5
I1
ssVmission
p3896
(dp3897
g4
I1
sg5
I0
ssVheiraten
p3898
(dp3899
g4
I1
sg5
I0
ssVirakischem
p3900
(dp3901
g4
I0
sg5
I1
ssVradar
p3902
(dp3903
g4
I1
sg5
I0
ssVbundesregierung
p3904
(dp3905
g4
I1
sg5
I1
ssVlenkt
p3906
(dp3907
g4
I1
sg5
I0
ssVhell
p3908
(dp3909
g4
I1
sg5
I0
ssVbeschleunigen
p3910
(dp3911
g4
I1
sg5
I0
ssVinsgesamt
p3912
(dp3913
g4
I1
sg5
I2
ssVfeatures
p3914
(dp3915
g4
I1
sg5
I0
ssValten
p3916
(dp3917
g4
I1
sg5
I0
ssValle
p3918
(dp3919
g4
I13
sg5
I2
ssVsysteme
p3920
(dp3921
g4
I4
sg5
I0
ssVkrisenstaat
p3922
(dp3923
g4
I0
sg5
I1
ssVffentlichung
p3924
(dp3925
g4
I2
sg5
I0
ssVauftauchte
p3926
(dp3927
g4
I1
sg5
I0
ssVpcs
p3928
(dp3929
g4
I1
sg5
I0
ssVgenannt
p3930
(dp3931
g4
I1
sg5
I0
ssVmessen
p3932
(dp3933
g4
I1
sg5
I0
ssVpolnische
p3934
(dp3935
g4
I0
sg5
I2
ssVeigentore
p3936
(dp3937
g4
I0
sg5
I1
ssVbezahlm
p3938
(dp3939
g4
I0
sg5
I1
ssVfehlerhaftes
p3940
(dp3941
g4
I2
sg5
I0
ssVsoccer
p3942
(dp3943
g4
I1
sg5
I0
ssVmusste
p3944
(dp3945
g4
I1
sg5
I0
ssVreturn
p3946
(dp3947
g4
I0
sg5
I1
ssVhlen
p3948
(dp3949
g4
I1
sg5
I1
ssVschminke
p3950
(dp3951
g4
I0
sg5
I1
ssVleistung
p3952
(dp3953
g4
I2
sg5
I0
ssValltagsspuren
p3954
(dp3955
g4
I0
sg5
I1
ssVuhr
p3956
(dp3957
g4
I3
sg5
I0
ssVparty
p3958
(dp3959
g4
I0
sg5
I1
ssVckgang
p3960
(dp3961
g4
I1
sg5
I0
ssVmarcus
p3962
(dp3963
g4
I0
sg5
I1
ssVferienzeit
p3964
(dp3965
g4
I1
sg5
I0
ssVnennt
p3966
(dp3967
g4
I3
sg5
I0
ssVmussten
p3968
(dp3969
g4
I1
sg5
I0
ssVstromhunger
p3970
(dp3971
g4
I1
sg5
I0
ssVvorgestellt
p3972
(dp3973
g4
I7
sg5
I0
ssVkriegshandlung
p3974
(dp3975
g4
I0
sg5
I1
ssVcomputernutzern
p3976
(dp3977
g4
I1
sg5
I0
ssVdrake
p3978
(dp3979
g4
I1
sg5
I0
ssVunklar
p3980
(dp3981
g4
I1
sg5
I1
ssVfestgenommen
p3982
(dp3983
g4
I0
sg5
I1
ssVwimbledon
p3984
(dp3985
g4
I0
sg5
I1
ssVrechtezuweisungen
p3986
(dp3987
g4
I1
sg5
I0
ssVuniversit
p3988
(dp3989
g4
I1
sg5
I0
ssVstoppen
p3990
(dp3991
g4
I0
sg5
I1
ssVheiner
p3992
(dp3993
g4
I0
sg5
I1
ssVerlauben
p3994
(dp3995
g4
I0
sg5
I1
ssVstatus
p3996
(dp3997
g4
I1
sg5
I0
ssVgekennzeichnet
p3998
(dp3999
g4
I0
sg5
I1
ssVfristen
p4000
(dp4001
g4
I1
sg5
I0
ssVhard
p4002
(dp4003
g4
I1
sg5
I0
ssVsozialunion
p4004
(dp4005
g4
I0
sg5
I1
ssVwunsch
p4006
(dp4007
g4
I1
sg5
I0
ssVbedingt
p4008
(dp4009
g4
I1
sg5
I0
ssVball
p4010
(dp4011
g4
I7
sg5
I5
ssVabzugrenzen
p4012
(dp4013
g4
I0
sg5
I1
ssVdomaininhaber
p4014
(dp4015
g4
I1
sg5
I0
ssVmamadou
p4016
(dp4017
g4
I0
sg5
I1
ssVzittert
p4018
(dp4019
g4
I0
sg5
I1
ssVumsatz
p4020
(dp4021
g4
I1
sg5
I0
ssVerstmals
p4022
(dp4023
g4
I5
sg5
I1
ssVgesamten
p4024
(dp4025
g4
I1
sg5
I0
ssVdemonstranten
p4026
(dp4027
g4
I1
sg5
I0
ssVfte
p4028
(dp4029
g4
I1
sg5
I1
ssVverliehen
p4030
(dp4031
g4
I1
sg5
I0
ssVabnehmen
p4032
(dp4033
g4
I1
sg5
I0
ssVprint
p4034
(dp4035
g4
I1
sg5
I0
ssVbereich
p4036
(dp4037
g4
I1
sg5
I0
ssVnest
p4038
(dp4039
g4
I1
sg5
I0
ssVvermiesen
p4040
(dp4041
g4
I0
sg5
I1
ssVschweren
p4042
(dp4043
g4
I2
sg5
I0
ssVrmer
p4044
(dp4045
g4
I0
sg5
I1
ssVgut
p4046
(dp4047
g4
I3
sg5
I1
ssVsymbian
p4048
(dp4049
g4
I1
sg5
I0
ssVlebenserwartung
p4050
(dp4051
g4
I0
sg5
I1
ssVmobilen
p4052
(dp4053
g4
I3
sg5
I0
ssVzutaten
p4054
(dp4055
g4
I0
sg5
I1
ssVgiveaway
p4056
(dp4057
g4
I1
sg5
I0
ssVrmen
p4058
(dp4059
g4
I0
sg5
I1
ssVauslesen
p4060
(dp4061
g4
I1
sg5
I0
ssVmma
p4062
(dp4063
g4
I1
sg5
I0
ssVgesichert
p4064
(dp4065
g4
I1
sg5
I0
ssVspeicherzwerge
p4066
(dp4067
g4
I1
sg5
I0
ssVspitzenjobs
p4068
(dp4069
g4
I0
sg5
I1
ssVeffizientem
p4070
(dp4071
g4
I1
sg5
I0
ssVbersteht
p4072
(dp4073
g4
I0
sg5
I1
ssVdiaspora
p4074
(dp4075
g4
I1
sg5
I0
ssVcomputern
p4076
(dp4077
g4
I1
sg5
I0
ssVweltweit
p4078
(dp4079
g4
I2
sg5
I1
ssVtestergebnisse
p4080
(dp4081
g4
I0
sg5
I1
ssVnglich
p4082
(dp4083
g4
I0
sg5
I1
ssVfallen
p4084
(dp4085
g4
I1
sg5
I0
ssVbekannten
p4086
(dp4087
g4
I3
sg5
I0
ssVbekommen
p4088
(dp4089
g4
I2
sg5
I3
ssVradeon
p4090
(dp4091
g4
I1
sg5
I0
ssVstungsexporte
p4092
(dp4093
g4
I0
sg5
I1
ssVversand
p4094
(dp4095
g4
I1
sg5
I0
ssVwagen
p4096
(dp4097
g4
I1
sg5
I0
ssVblichen
p4098
(dp4099
g4
I1
sg5
I0
ssVnach
p4100
(dp4101
g4
I18
sg5
I10
ssVabo
p4102
(dp4103
g4
I1
sg5
I0
ssVfrequenzen
p4104
(dp4105
g4
I2
sg5
I0
ssVoptimierte
p4106
(dp4107
g4
I1
sg5
I0
ssVzahlungsmittel
p4108
(dp4109
g4
I0
sg5
I1
ssVanwender
p4110
(dp4111
g4
I1
sg5
I0
ssVrkeren
p4112
(dp4113
g4
I0
sg5
I1
ssVikea
p4114
(dp4115
g4
I1
sg5
I0
ssVsteuern
p4116
(dp4117
g4
I2
sg5
I0
ssVkom
p4118
(dp4119
g4
I0
sg5
I1
ssVlinkspolitiker
p4120
(dp4121
g4
I0
sg5
I1
ssVberwacht
p4122
(dp4123
g4
I0
sg5
I1
ssVswarm
p4124
(dp4125
g4
I1
sg5
I0
ssVhandliche
p4126
(dp4127
g4
I1
sg5
I0
ssVwebide
p4128
(dp4129
g4
I1
sg5
I0
ssVnigeria
p4130
(dp4131
g4
I0
sg5
I2
ssVecuador
p4132
(dp4133
g4
I1
sg5
I2
ssVmonaten
p4134
(dp4135
g4
I2
sg5
I0
ssVhochladen
p4136
(dp4137
g4
I1
sg5
I0
ssVheimvernetzer
p4138
(dp4139
g4
I1
sg5
I0
ssVhotel
p4140
(dp4141
g4
I0
sg5
I1
ssVnennen
p4142
(dp4143
g4
I0
sg5
I1
ssVtastatur
p4144
(dp4145
g4
I3
sg5
I0
ssVlivestream
p4146
(dp4147
g4
I1
sg5
I0
ssVtranssexualit
p4148
(dp4149
g4
I0
sg5
I1
ssVbuntes
p4150
(dp4151
g4
I0
sg5
I1
ssVaufwand
p4152
(dp4153
g4
I1
sg5
I0
ssVverwaltung
p4154
(dp4155
g4
I2
sg5
I0
ssVschon
p4156
(dp4157
g4
I2
sg5
I3
ssVobama
p4158
(dp4159
g4
I1
sg5
I1
ssVkind
p4160
(dp4161
g4
I0
sg5
I2
ssVvereinten
p4162
(dp4163
g4
I0
sg5
I1
ssVdirekt
p4164
(dp4165
g4
I1
sg5
I1
ssVillegale
p4166
(dp4167
g4
I0
sg5
I1
ssVtransatlantischen
p4168
(dp4169
g4
I0
sg5
I1
ssVknapp
p4170
(dp4171
g4
I2
sg5
I1
ssVsyrisches
p4172
(dp4173
g4
I0
sg5
I1
ssVdann
p4174
(dp4175
g4
I1
sg5
I2
ssVpflichten
p4176
(dp4177
g4
I1
sg5
I0
ssVdank
p4178
(dp4179
g4
I3
sg5
I2
ssVtats
p4180
(dp4181
g4
I3
sg5
I0
ssVkindle
p4182
(dp4183
g4
I1
sg5
I0
ssVrische
p4184
(dp4185
g4
I0
sg5
I1
ssVgehaltener
p4186
(dp4187
g4
I1
sg5
I0
ssVufen
p4188
(dp4189
g4
I1
sg5
I0
ssVmotivation
p4190
(dp4191
g4
I0
sg5
I1
ssVubiges
p4192
(dp4193
g4
I1
sg5
I0
ssVgeordneten
p4194
(dp4195
g4
I0
sg5
I1
ssVtstracking
p4196
(dp4197
g4
I1
sg5
I0
ssVverhindern
p4198
(dp4199
g4
I0
sg5
I1
ssVreichweite
p4200
(dp4201
g4
I1
sg5
I0
ssVbundestrainer
p4202
(dp4203
g4
I1
sg5
I0
ssVnachlegen
p4204
(dp4205
g4
I1
sg5
I0
ssVbesetzen
p4206
(dp4207
g4
I0
sg5
I1
ssVsslich
p4208
(dp4209
g4
I1
sg5
I0
ssVftet
p4210
(dp4211
g4
I1
sg5
I0
ssVgliche
p4212
(dp4213
g4
I0
sg5
I1
ssVreist
p4214
(dp4215
g4
I0
sg5
I1
ssVpreise
p4216
(dp4217
g4
I2
sg5
I0
ssVsteht
p4218
(dp4219
g4
I6
sg5
I3
ssVeingesetzt
p4220
(dp4221
g4
I1
sg5
I0
ssVbeteiligten
p4222
(dp4223
g4
I1
sg5
I0
ssVkarl
p4224
(dp4225
g4
I0
sg5
I1
ssVoption
p4226
(dp4227
g4
I1
sg5
I0
ssVmountain
p4228
(dp4229
g4
I1
sg5
I0
ssVnationalelf
p4230
(dp4231
g4
I1
sg5
I0
ssVrgern
p4232
(dp4233
g4
I0
sg5
I1
ssVbelriesen
p4234
(dp4235
g4
I1
sg5
I0
ssVeuch
p4236
(dp4237
g4
I1
sg5
I0
ssVhgr
p4238
(dp4239
g4
I1
sg5
I0
ssVdiscounter
p4240
(dp4241
g4
I2
sg5
I0
ssVckgezogen
p4242
(dp4243
g4
I1
sg5
I0
ssVbono
p4244
(dp4245
g4
I1
sg5
I0
ssVreisezoom
p4246
(dp4247
g4
I1
sg5
I0
ssVbuild
p4248
(dp4249
g4
I1
sg5
I0
ssVschwarze
p4250
(dp4251
g4
I0
sg5
I1
ssVgeheimdienste
p4252
(dp4253
g4
I1
sg5
I0
ssVkommandeur
p4254
(dp4255
g4
I0
sg5
I1
ssVhirntumoren
p4256
(dp4257
g4
I0
sg5
I1
ssVtintenstrahldrucker
p4258
(dp4259
g4
I1
sg5
I0
ssVkam
p4260
(dp4261
g4
I1
sg5
I0
ssVfiesen
p4262
(dp4263
g4
I1
sg5
I0
ssVklobige
p4264
(dp4265
g4
I1
sg5
I0
ssVwatt
p4266
(dp4267
g4
I1
sg5
I0
ssVdiversen
p4268
(dp4269
g4
I2
sg5
I0
ssVurlaub
p4270
(dp4271
g4
I1
sg5
I0
ssVkombiger
p4272
(dp4273
g4
I1
sg5
I0
ssVbisherige
p4274
(dp4275
g4
I0
sg5
I1
ssVerkannt
p4276
(dp4277
g4
I0
sg5
I1
ssVffentliche
p4278
(dp4279
g4
I0
sg5
I1
ssVwindows
p4280
(dp4281
g4
I13
sg5
I0
ssVgabs
p4282
(dp4283
g4
I1
sg5
I0
ssVstellungen
p4284
(dp4285
g4
I0
sg5
I2
ssVwiese
p4286
(dp4287
g4
I1
sg5
I0
ssVhandfesten
p4288
(dp4289
g4
I1
sg5
I0
ssVhierbei
p4290
(dp4291
g4
I1
sg5
I0
ssVmeint
p4292
(dp4293
g4
I1
sg5
I0
ssVwieso
p4294
(dp4295
g4
I0
sg5
I1
ssVmicrosoft
p4296
(dp4297
g4
I13
sg5
I0
ssVintels
p4298
(dp4299
g4
I1
sg5
I0
ssVkonkreter
p4300
(dp4301
g4
I1
sg5
I0
ssVthomas
p4302
(dp4303
g4
I1
sg5
I1
ssVunserer
p4304
(dp4305
g4
I1
sg5
I0
ssVweiterleitete
p4306
(dp4307
g4
I1
sg5
I0
ssVehemalige
p4308
(dp4309
g4
I1
sg5
I0
ssVmiteinander
p4310
(dp4311
g4
I1
sg5
I0
ssVumgang
p4312
(dp4313
g4
I1
sg5
I0
ssVdomainregistrierung
p4314
(dp4315
g4
I1
sg5
I0
ssVterritorium
p4316
(dp4317
g4
I0
sg5
I1
ssVcdu
p4318
(dp4319
g4
I0
sg5
I3
ssVrelation
p4320
(dp4321
g4
I1
sg5
I0
ssVgelegt
p4322
(dp4323
g4
I1
sg5
I0
ssVscreenshots
p4324
(dp4325
g4
I2
sg5
I0
ssVunseren
p4326
(dp4327
g4
I3
sg5
I0
ssVzollfahndern
p4328
(dp4329
g4
I0
sg5
I1
ssVverifizierten
p4330
(dp4331
g4
I1
sg5
I0
ssVarchitektur
p4332
(dp4333
g4
I0
sg5
I1
ssVinlandsgeheimdienst
p4334
(dp4335
g4
I0
sg5
I1
ssVjuncker
p4336
(dp4337
g4
I0
sg5
I1
ssVinstallieren
p4338
(dp4339
g4
I1
sg5
I0
ssVequity
p4340
(dp4341
g4
I1
sg5
I0
ssVhatte
p4342
(dp4343
g4
I2
sg5
I1
ssVkreditkarten
p4344
(dp4345
g4
I0
sg5
I1
ssVszene
p4346
(dp4347
g4
I0
sg5
I2
ssVfachkr
p4348
(dp4349
g4
I0
sg5
I1
ssVtransatlantisches
p4350
(dp4351
g4
I1
sg5
I0
ssVvermeintlichen
p4352
(dp4353
g4
I1
sg5
I0
ssVanblick
p4354
(dp4355
g4
I0
sg5
I1
ssVhiv
p4356
(dp4357
g4
I1
sg5
I0
ssVffentlich
p4358
(dp4359
g4
I1
sg5
I0
ssVneuester
p4360
(dp4361
g4
I0
sg5
I1
ssVinklusive
p4362
(dp4363
g4
I1
sg5
I0
ssVdatensammlern
p4364
(dp4365
g4
I1
sg5
I0
ssVgleicht
p4366
(dp4367
g4
I0
sg5
I1
ssVbedenklicher
p4368
(dp4369
g4
I0
sg5
I1
ssVexplodiert
p4370
(dp4371
g4
I0
sg5
I1
ssVhie
p4372
(dp4373
g4
I1
sg5
I0
ssVdonald
p4374
(dp4375
g4
I0
sg5
I1
ssVanklagebank
p4376
(dp4377
g4
I0
sg5
I1
ssVhin
p4378
(dp4379
g4
I2
sg5
I0
ssVfreigabe
p4380
(dp4381
g4
I1
sg5
I0
ssVargentinien
p4382
(dp4383
g4
I0
sg5
I3
ssVellenbogen
p4384
(dp4385
g4
I0
sg5
I1
ssVenminister
p4386
(dp4387
g4
I0
sg5
I3
ssVcry
p4388
(dp4389
g4
I1
sg5
I0
ssVeinkaufszentrum
p4390
(dp4391
g4
I0
sg5
I1
ssVturnierplanung
p4392
(dp4393
g4
I0
sg5
I1
ssVrusslands
p4394
(dp4395
g4
I0
sg5
I1
ssVgeld
p4396
(dp4397
g4
I3
sg5
I2
ssVrfe
p4398
(dp4399
g4
I2
sg5
I0
ssVrderischen
p4400
(dp4401
g4
I0
sg5
I1
ssVfortan
p4402
(dp4403
g4
I1
sg5
I0
ssVkonzern
p4404
(dp4405
g4
I3
sg5
I1
ssVurteil
p4406
(dp4407
g4
I0
sg5
I1
ssVunbedingt
p4408
(dp4409
g4
I0
sg5
I1
ssVzensieren
p4410
(dp4411
g4
I1
sg5
I0
ssVntsch
p4412
(dp4413
g4
I0
sg5
I1
ssVhersteller
p4414
(dp4415
g4
I4
sg5
I2
ssVgewinnt
p4416
(dp4417
g4
I1
sg5
I0
ssVdeathmatches
p4418
(dp4419
g4
I1
sg5
I0
ssVsex
p4420
(dp4421
g4
I1
sg5
I0
ssVfeldforschung
p4422
(dp4423
g4
I0
sg5
I1
ssVard
p4424
(dp4425
g4
I3
sg5
I1
ssVschiiten
p4426
(dp4427
g4
I0
sg5
I1
ssVallmacht
p4428
(dp4429
g4
I1
sg5
I0
ssVmethan
p4430
(dp4431
g4
I1
sg5
I0
ssVmenschenbild
p4432
(dp4433
g4
I0
sg5
I1
ssVvorheriger
p4434
(dp4435
g4
I1
sg5
I0
ssVzitierte
p4436
(dp4437
g4
I1
sg5
I0
ssVangeschlossenen
p4438
(dp4439
g4
I1
sg5
I0
ssVarm
p4440
(dp4441
g4
I2
sg5
I0
ssVsei
p4442
(dp4443
g4
I3
sg5
I2
ssVngerem
p4444
(dp4445
g4
I1
sg5
I0
ssVverba
p4446
(dp4447
g4
I1
sg5
I0
ssVkonsequenzen
p4448
(dp4449
g4
I0
sg5
I2
ssVexpert
p4450
(dp4451
g4
I1
sg5
I0
ssVquartal
p4452
(dp4453
g4
I2
sg5
I0
ssVerfolg
p4454
(dp4455
g4
I1
sg5
I1
ssVbeseitigen
p4456
(dp4457
g4
I1
sg5
I0
ssVups
p4458
(dp4459
g4
I1
sg5
I0
ssVwom
p4460
(dp4461
g4
I1
sg5
I1
ssVverbr
p4462
(dp4463
g4
I2
sg5
I0
ssVdurcheinanderbringen
p4464
(dp4465
g4
I0
sg5
I1
ssVsonst
p4466
(dp4467
g4
I1
sg5
I0
ssVrperdaten
p4468
(dp4469
g4
I1
sg5
I0
ssVreformiert
p4470
(dp4471
g4
I0
sg5
I1
ssVngeres
p4472
(dp4473
g4
I1
sg5
I0
ssVschuldenregeln
p4474
(dp4475
g4
I0
sg5
I1
ssVsoll
p4476
(dp4477
g4
I16
sg5
I6
ssVmilitanten
p4478
(dp4479
g4
I0
sg5
I1
ssVeuropa
p4480
(dp4481
g4
I0
sg5
I4
ssVjeden
p4482
(dp4483
g4
I2
sg5
I1
ssVlange
p4484
(dp4485
g4
I0
sg5
I6
ssVgutachter
p4486
(dp4487
g4
I1
sg5
I0
ssVgestresster
p4488
(dp4489
g4
I0
sg5
I1
ssVdruckt
p4490
(dp4491
g4
I1
sg5
I0
ssVsommerzeit
p4492
(dp4493
g4
I1
sg5
I0
ssVsprachbefehlen
p4494
(dp4495
g4
I1
sg5
I0
ssVmittagszeit
p4496
(dp4497
g4
I0
sg5
I1
ssVgenre
p4498
(dp4499
g4
I1
sg5
I0
ssVjeder
p4500
(dp4501
g4
I2
sg5
I0
ssVrper
p4502
(dp4503
g4
I0
sg5
I1
ssVwerbung
p4504
(dp4505
g4
I1
sg5
I0
ssVterrestrisches
p4506
(dp4507
g4
I1
sg5
I0
ssVsecrets
p4508
(dp4509
g4
I1
sg5
I0
ssVsaturnmond
p4510
(dp4511
g4
I1
sg5
I0
ssVnimmt
p4512
(dp4513
g4
I1
sg5
I1
ssVdigitale
p4514
(dp4515
g4
I0
sg5
I1
ssVsuchmaschinenkonzern
p4516
(dp4517
g4
I1
sg5
I0
ssVhrigen
p4518
(dp4519
g4
I1
sg5
I0
ssVberwachen
p4520
(dp4521
g4
I0
sg5
I1
ssVinteressante
p4522
(dp4523
g4
I1
sg5
I0
ssVetikette
p4524
(dp4525
g4
I0
sg5
I1
ssVmedion
p4526
(dp4527
g4
I2
sg5
I0
ssVzwingt
p4528
(dp4529
g4
I1
sg5
I0
ssVmicrosd
p4530
(dp4531
g4
I1
sg5
I0
ssVzusammen
p4532
(dp4533
g4
I2
sg5
I1
ssVdesktop
p4534
(dp4535
g4
I3
sg5
I0
ssVvorenthalten
p4536
(dp4537
g4
I0
sg5
I1
ssVhriger
p4538
(dp4539
g4
I1
sg5
I0
ssVkonnten
p4540
(dp4541
g4
I1
sg5
I0
ssVelektro
p4542
(dp4543
g4
I1
sg5
I0
ssVgeformt
p4544
(dp4545
g4
I1
sg5
I0
ssVkunden
p4546
(dp4547
g4
I4
sg5
I0
ssVhinterm
p4548
(dp4549
g4
I1
sg5
I0
ssVherausgegeben
p4550
(dp4551
g4
I1
sg5
I0
ssVstehende
p4552
(dp4553
g4
I1
sg5
I0
ssVbilligmode
p4554
(dp4555
g4
I0
sg5
I1
ssVsupercomputern
p4556
(dp4557
g4
I2
sg5
I0
ssVteilnehmer
p4558
(dp4559
g4
I1
sg5
I0
ssVran
p4560
(dp4561
g4
I1
sg5
I0
ssVarbeit
p4562
(dp4563
g4
I1
sg5
I1
ssVreise
p4564
(dp4565
g4
I1
sg5
I0
ssVverwandelt
p4566
(dp4567
g4
I1
sg5
I0
ssVscherz
p4568
(dp4569
g4
I1
sg5
I0
ssVppchen
p4570
(dp4571
g4
I4
sg5
I0
ssVerhaben
p4572
(dp4573
g4
I1
sg5
I0
ssVbeispiel
p4574
(dp4575
g4
I1
sg5
I0
ssVbestbezahlten
p4576
(dp4577
g4
I0
sg5
I1
ssVukraine
p4578
(dp4579
g4
I0
sg5
I2
ssVterrormiliz
p4580
(dp4581
g4
I0
sg5
I1
ssVmodern
p4582
(dp4583
g4
I1
sg5
I0
ssVwohlhabende
p4584
(dp4585
g4
I0
sg5
I1
ssVgrundschule
p4586
(dp4587
g4
I0
sg5
I2
ssVgenutztes
p4588
(dp4589
g4
I0
sg5
I1
ssVbestand
p4590
(dp4591
g4
I1
sg5
I0
ssVndete
p4592
(dp4593
g4
I2
sg5
I0
ssVadresse
p4594
(dp4595
g4
I1
sg5
I0
ssVimac
p4596
(dp4597
g4
I1
sg5
I0
ssVechte
p4598
(dp4599
g4
I1
sg5
I0
ssVanzupassen
p4600
(dp4601
g4
I1
sg5
I0
ssVheute
p4602
(dp4603
g4
I4
sg5
I0
ssVtigt
p4604
(dp4605
g4
I0
sg5
I1
ssVsonder
p4606
(dp4607
g4
I1
sg5
I0
ssVnrw
p4608
(dp4609
g4
I0
sg5
I1
ssVgab
p4610
(dp4611
g4
I1
sg5
I0
ssVmilit
p4612
(dp4613
g4
I0
sg5
I2
ssVimplementierung
p4614
(dp4615
g4
I1
sg5
I0
ssVbild
p4616
(dp4617
g4
I3
sg5
I0
ssVlook
p4618
(dp4619
g4
I1
sg5
I0
ssVprojekt
p4620
(dp4621
g4
I1
sg5
I1
ssVverlage
p4622
(dp4623
g4
I1
sg5
I0
ssVchtek
p4624
(dp4625
g4
I1
sg5
I0
ssVprofessioneller
p4626
(dp4627
g4
I1
sg5
I0
ssVbegann
p4628
(dp4629
g4
I0
sg5
I1
ssVeingebracht
p4630
(dp4631
g4
I1
sg5
I0
ssVbetrachtete
p4632
(dp4633
g4
I1
sg5
I0
ssVwirtschaft
p4634
(dp4635
g4
I0
sg5
I1
ssVsterte
p4636
(dp4637
g4
I1
sg5
I0
ssVpatchday
p4638
(dp4639
g4
I1
sg5
I0
ssVinhaltsstoffe
p4640
(dp4641
g4
I0
sg5
I1
ssVgeholfen
p4642
(dp4643
g4
I1
sg5
I1
ssVumfassend
p4644
(dp4645
g4
I3
sg5
I0
ssVsicherer
p4646
(dp4647
g4
I2
sg5
I0
ssVportugal
p4648
(dp4649
g4
I1
sg5
I1
ssVstunde
p4650
(dp4651
g4
I1
sg5
I1
ssVbewegen
p4652
(dp4653
g4
I1
sg5
I0
ssVwollen
p4654
(dp4655
g4
I2
sg5
I6
ssVvon
p4656
(dp4657
g4
I47
sg5
I24
ssVflatrate
p4658
(dp4659
g4
I1
sg5
I0
ssVdemos
p4660
(dp4661
g4
I1
sg5
I0
ssVeingezogen
p4662
(dp4663
g4
I0
sg5
I1
ssVfestgestellt
p4664
(dp4665
g4
I0
sg5
I1
ssVwhistleblowerin
p4666
(dp4667
g4
I1
sg5
I0
ssVvor
p4668
(dp4669
g4
I14
sg5
I11
ssVskype
p4670
(dp4671
g4
I1
sg5
I0
ssVzieht
p4672
(dp4673
g4
I3
sg5
I1
ssVbusch
p4674
(dp4675
g4
I0
sg5
I1
ssVfrauen
p4676
(dp4677
g4
I0
sg5
I2
ssVbeweisen
p4678
(dp4679
g4
I1
sg5
I0
ssVkeystore
p4680
(dp4681
g4
I1
sg5
I0
ssVvergleich
p4682
(dp4683
g4
I0
sg5
I1
ssVstreitkr
p4684
(dp4685
g4
I1
sg5
I0
ssVrecht
p4686
(dp4687
g4
I2
sg5
I1
ssVkonomisch
p4688
(dp4689
g4
I0
sg5
I1
ssVeuronics
p4690
(dp4691
g4
I1
sg5
I0
ssVforderungen
p4692
(dp4693
g4
I1
sg5
I0
ssVelefantenf
p4694
(dp4695
g4
I0
sg5
I1
ssVattackiert
p4696
(dp4697
g4
I0
sg5
I1
ssVrauchender
p4698
(dp4699
g4
I0
sg5
I1
ssVhauptzeuge
p4700
(dp4701
g4
I0
sg5
I1
ssVeingef
p4702
(dp4703
g4
I1
sg5
I0
ssVberarbeitet
p4704
(dp4705
g4
I1
sg5
I0
ssVeingen
p4706
(dp4707
g4
I0
sg5
I1
ssVwirtschaftlich
p4708
(dp4709
g4
I0
sg5
I1
ssVanschauen
p4710
(dp4711
g4
I2
sg5
I0
ssVrabatz
p4712
(dp4713
g4
I0
sg5
I1
ssVwarum
p4714
(dp4715
g4
I0
sg5
I3
ssVzwar
p4716
(dp4717
g4
I2
sg5
I1
ssVusen
p4718
(dp4719
g4
I0
sg5
I1
ssVdeklassiert
p4720
(dp4721
g4
I1
sg5
I0
ssVoptischen
p4722
(dp4723
g4
I1
sg5
I0
ssVoptik
p4724
(dp4725
g4
I1
sg5
I0
ssVrfte
p4726
(dp4727
g4
I0
sg5
I1
ssVerzielt
p4728
(dp4729
g4
I1
sg5
I0
ssVviewing
p4730
(dp4731
g4
I1
sg5
I0
ssVdynamische
p4732
(dp4733
g4
I1
sg5
I0
ssVverboten
p4734
(dp4735
g4
I1
sg5
I1
ssVgeschlecht
p4736
(dp4737
g4
I0
sg5
I1
ssVeuro
p4738
(dp4739
g4
I5
sg5
I6
ssVschiitische
p4740
(dp4741
g4
I0
sg5
I1
ssVerweitern
p4742
(dp4743
g4
I1
sg5
I0
ssVwarfen
p4744
(dp4745
g4
I0
sg5
I1
ssVweitergeleitet
p4746
(dp4747
g4
I1
sg5
I0
ssVverklagen
p4748
(dp4749
g4
I0
sg5
I1
ssVstellen
p4750
(dp4751
g4
I4
sg5
I1
ssVedge
p4752
(dp4753
g4
I1
sg5
I0
ssVcannes
p4754
(dp4755
g4
I1
sg5
I0
ssVwohnung
p4756
(dp4757
g4
I0
sg5
I2
ssVbedrohte
p4758
(dp4759
g4
I1
sg5
I0
ssVgsm
p4760
(dp4761
g4
I1
sg5
I0
ssVhingegen
p4762
(dp4763
g4
I0
sg5
I1
ssVvarianten
p4764
(dp4765
g4
I1
sg5
I0
ssVeigenen
p4766
(dp4767
g4
I3
sg5
I1
ssVfliegen
p4768
(dp4769
g4
I0
sg5
I1
ssVhinnehmen
p4770
(dp4771
g4
I1
sg5
I0
ssVkomplett
p4772
(dp4773
g4
I1
sg5
I0
ssVinfrastruktur
p4774
(dp4775
g4
I1
sg5
I0
ssVdurchgesetzt
p4776
(dp4777
g4
I1
sg5
I0
ssVamp
p4778
(dp4779
g4
I1
sg5
I0
ssVtaiwan
p4780
(dp4781
g4
I1
sg5
I1
ssVwearable
p4782
(dp4783
g4
I2
sg5
I0
ssVbestellbar
p4784
(dp4785
g4
I1
sg5
I0
ssVfinden
p4786
(dp4787
g4
I5
sg5
I0
ssVsparte
p4788
(dp4789
g4
I1
sg5
I0
ssVueltaten
p4790
(dp4791
g4
I0
sg5
I1
ssVdslr
p4792
(dp4793
g4
I1
sg5
I0
ssVtodkranke
p4794
(dp4795
g4
I1
sg5
I0
ssValso
p4796
(dp4797
g4
I1
sg5
I0
ssVstabilit
p4798
(dp4799
g4
I0
sg5
I1
ssVhitzfeld
p4800
(dp4801
g4
I0
sg5
I1
ssVfrischer
p4802
(dp4803
g4
I1
sg5
I0
ssVsource
p4804
(dp4805
g4
I2
sg5
I0
ssVnzt
p4806
(dp4807
g4
I1
sg5
I0
ssVaps
p4808
(dp4809
g4
I1
sg5
I0
ssVfindet
p4810
(dp4811
g4
I0
sg5
I1
ssVungl
p4812
(dp4813
g4
I1
sg5
I0
ssVdslm
p4814
(dp4815
g4
I1
sg5
I0
ssVprobieren
p4816
(dp4817
g4
I1
sg5
I0
ssVgeschichte
p4818
(dp4819
g4
I0
sg5
I1
ssVverfassungsschutz
p4820
(dp4821
g4
I0
sg5
I1
ssVsollte
p4822
(dp4823
g4
I1
sg5
I3
ssVdvds
p4824
(dp4825
g4
I1
sg5
I0
ssVerwartet
p4826
(dp4827
g4
I3
sg5
I0
ssVweite
p4828
(dp4829
g4
I0
sg5
I1
ssVgesetzespaket
p4830
(dp4831
g4
I0
sg5
I1
ssVeinkaufsviertel
p4832
(dp4833
g4
I0
sg5
I1
ssVlinksextremer
p4834
(dp4835
g4
I0
sg5
I1
ssVvolk
p4836
(dp4837
g4
I0
sg5
I1
ssVerwarten
p4838
(dp4839
g4
I2
sg5
I0
ssVlassen
p4840
(dp4841
g4
I5
sg5
I6
ssVgbar
p4842
(dp4843
g4
I1
sg5
I0
ssVruft
p4844
(dp4845
g4
I2
sg5
I0
ssVrfnisse
p4846
(dp4847
g4
I2
sg5
I0
ssVhrdeten
p4848
(dp4849
g4
I1
sg5
I0
ssVerste
p4850
(dp4851
g4
I3
sg5
I0
ssVvermeiden
p4852
(dp4853
g4
I0
sg5
I1
ssVteil
p4854
(dp4855
g4
I1
sg5
I0
ssVinformationen
p4856
(dp4857
g4
I1
sg5
I0
ssVbetagte
p4858
(dp4859
g4
I1
sg5
I0
ssVregierungsmitteilu
p4860
(dp4861
g4
I1
sg5
I0
ssVbundesverband
p4862
(dp4863
g4
I1
sg5
I0
ssVstrafrechtlich
p4864
(dp4865
g4
I0
sg5
I1
ssVgoogle
p4866
(dp4867
g4
I31
sg5
I1
ssVsorgen
p4868
(dp4869
g4
I3
sg5
I1
ssVklimaziele
p4870
(dp4871
g4
I0
sg5
I1
ssVneidische
p4872
(dp4873
g4
I1
sg5
I0
ssVhinter
p4874
(dp4875
g4
I3
sg5
I1
ssVstreaming
p4876
(dp4877
g4
I3
sg5
I0
ssVfestplatte
p4878
(dp4879
g4
I1
sg5
I0
ssVstaunen
p4880
(dp4881
g4
I1
sg5
I0
ssVhermann
p4882
(dp4883
g4
I0
sg5
I1
ssVoffenbar
p4884
(dp4885
g4
I5
sg5
I1
ssVursula
p4886
(dp4887
g4
I0
sg5
I1
ssVerlebt
p4888
(dp4889
g4
I1
sg5
I0
ssVvermutlich
p4890
(dp4891
g4
I0
sg5
I2
ssVmontag
p4892
(dp4893
g4
I1
sg5
I0
ssVseehofer
p4894
(dp4895
g4
I0
sg5
I1
ssVsprachlichen
p4896
(dp4897
g4
I1
sg5
I0
ssVgesperrt
p4898
(dp4899
g4
I0
sg5
I1
ssVintegration
p4900
(dp4901
g4
I1
sg5
I0
ssVper
p4902
(dp4903
g4
I5
sg5
I0
ssVpes
p4904
(dp4905
g4
I1
sg5
I0
ssVprivatheit
p4906
(dp4907
g4
I0
sg5
I1
ssVsagen
p4908
(dp4909
g4
I1
sg5
I1
ssVausgestattet
p4910
(dp4911
g4
I1
sg5
I0
ssVtastenk
p4912
(dp4913
g4
I1
sg5
I0
ssVmhz
p4914
(dp4915
g4
I1
sg5
I0
ssVboko
p4916
(dp4917
g4
I0
sg5
I1
ssVschadensverh
p4918
(dp4919
g4
I1
sg5
I0
ssVebook
p4920
(dp4921
g4
I1
sg5
I0
ssVacht
p4922
(dp4923
g4
I1
sg5
I0
ssVufc
p4924
(dp4925
g4
I1
sg5
I0
ssVruf
p4926
(dp4927
g4
I1
sg5
I0
ssVverdienstm
p4928
(dp4929
g4
I1
sg5
I0
ssVwein
p4930
(dp4931
g4
I0
sg5
I2
ssVweil
p4932
(dp4933
g4
I0
sg5
I2
ssVvermittelt
p4934
(dp4935
g4
I0
sg5
I2
ssVvollformat
p4936
(dp4937
g4
I1
sg5
I0
ssVbayern
p4938
(dp4939
g4
I0
sg5
I1
ssVuft
p4940
(dp4941
g4
I2
sg5
I1
ssVhandgreiflich
p4942
(dp4943
g4
I0
sg5
I1
ssVhauptsache
p4944
(dp4945
g4
I0
sg5
I1
ssVuntereinander
p4946
(dp4947
g4
I1
sg5
I0
ssVstandfu
p4948
(dp4949
g4
I1
sg5
I0
ssVnden
p4950
(dp4951
g4
I2
sg5
I0
ssVchiphersteller
p4952
(dp4953
g4
I1
sg5
I0
ssVbeliebter
p4954
(dp4955
g4
I0
sg5
I1
ssVdarauf
p4956
(dp4957
g4
I0
sg5
I1
ssVsimulation
p4958
(dp4959
g4
I1
sg5
I0
ssVerweist
p4960
(dp4961
g4
I1
sg5
I0
ssVgruppenspiel
p4962
(dp4963
g4
I0
sg5
I1
ssVbeliebten
p4964
(dp4965
g4
I2
sg5
I0
ssVerschaffung
p4966
(dp4967
g4
I0
sg5
I1
ssVruhiger
p4968
(dp4969
g4
I1
sg5
I0
ssVinternetknotens
p4970
(dp4971
g4
I1
sg5
I0
ssVndet
p4972
(dp4973
g4
I1
sg5
I1
ssVblock
p4974
(dp4975
g4
I1
sg5
I0
ssVletalen
p4976
(dp4977
g4
I1
sg5
I0
ssVgesetzentwurf
p4978
(dp4979
g4
I0
sg5
I1
ssVnsa
p4980
(dp4981
g4
I7
sg5
I2
ssVrolle
p4982
(dp4983
g4
I0
sg5
I1
ssVsicherheitsleck
p4984
(dp4985
g4
I1
sg5
I0
ssVgilt
p4986
(dp4987
g4
I1
sg5
I1
ssVversteckte
p4988
(dp4989
g4
I2
sg5
I0
ssVdauert
p4990
(dp4991
g4
I1
sg5
I0
ssVabteilung
p4992
(dp4993
g4
I1
sg5
I0
ssVfilme
p4994
(dp4995
g4
I1
sg5
I0
ssVeinheitliches
p4996
(dp4997
g4
I1
sg5
I0
ssVnsu
p4998
(dp4999
g4
I0
sg5
I3
ssVverfahren
p5000
(dp5001
g4
I0
sg5
I1
ssVgefangenen
p5002
(dp5003
g4
I0
sg5
I1
ssVuralte
p5004
(dp5005
g4
I0
sg5
I1
ssVlive
p5006
(dp5007
g4
I8
sg5
I0
ssVkonkurrenten
p5008
(dp5009
g4
I1
sg5
I1
ssVmacbook
p5010
(dp5011
g4
I1
sg5
I0
ssVgeplant
p5012
(dp5013
g4
I1
sg5
I1
ssVverbotene
p5014
(dp5015
g4
I0
sg5
I1
ssVliegt
p5016
(dp5017
g4
I1
sg5
I0
ssVrichtige
p5018
(dp5019
g4
I1
sg5
I0
ssVsocs
p5020
(dp5021
g4
I1
sg5
I0
ssVschulden
p5022
(dp5023
g4
I0
sg5
I1
ssVinformationsgehalt
p5024
(dp5025
g4
I0
sg5
I1
ssVbesonders
p5026
(dp5027
g4
I1
sg5
I0
ssVfer
p5028
(dp5029
g4
I0
sg5
I1
ssVinstallierte
p5030
(dp5031
g4
I1
sg5
I0
ssVjubelt
p5032
(dp5033
g4
I0
sg5
I1
ssVautoimmunerkrankung
p5034
(dp5035
g4
I0
sg5
I1
ssVhelfen
p5036
(dp5037
g4
I1
sg5
I1
ssVwtxl
p5038
(dp5039
g4
I1
sg5
I0
ssVappiah
p5040
(dp5041
g4
I0
sg5
I1
ssVsollen
p5042
(dp5043
g4
I7
sg5
I3
ssVserie
p5044
(dp5045
g4
I0
sg5
I2
ssVlink
p5046
(dp5047
g4
I1
sg5
I0
ssVenver
p5048
(dp5049
g4
I0
sg5
I1
ssVarbeitsgericht
p5050
(dp5051
g4
I0
sg5
I1
ssVsowohl
p5052
(dp5053
g4
I1
sg5
I0
ssVhrerschein
p5054
(dp5055
g4
I0
sg5
I1
ssVanlass
p5056
(dp5057
g4
I0
sg5
I1
ssVmobile
p5058
(dp5059
g4
I8
sg5
I0
ssVboateng
p5060
(dp5061
g4
I0
sg5
I1
ssVumgestellt
p5062
(dp5063
g4
I1
sg5
I0
ssVheterogeneous
p5064
(dp5065
g4
I1
sg5
I0
ssVpolitik
p5066
(dp5067
g4
I1
sg5
I1
ssVkompatibel
p5068
(dp5069
g4
I1
sg5
I0
ssVwiderlichen
p5070
(dp5071
g4
I0
sg5
I1
ssVmietpreisbremse
p5072
(dp5073
g4
I0
sg5
I2
ssVaufstand
p5074
(dp5075
g4
I0
sg5
I1
ssVvorschau
p5076
(dp5077
g4
I0
sg5
I1
ssVtaiwanische
p5078
(dp5079
g4
I1
sg5
I0
ssVtitel
p5080
(dp5081
g4
I1
sg5
I0
ssVfans
p5082
(dp5083
g4
I0
sg5
I3
ssVuhren
p5084
(dp5085
g4
I2
sg5
I0
ssVspezifischen
p5086
(dp5087
g4
I1
sg5
I0
ssVsichere
p5088
(dp5089
g4
I1
sg5
I0
ssVsichern
p5090
(dp5091
g4
I1
sg5
I0
ssVwerbespots
p5092
(dp5093
g4
I1
sg5
I0
ssVmagische
p5094
(dp5095
g4
I1
sg5
I0
ssVgestaltet
p5096
(dp5097
g4
I1
sg5
I0
ssVbetriebssystem
p5098
(dp5099
g4
I6
sg5
I0
ssVlinksuche
p5100
(dp5101
g4
I1
sg5
I0
ssVfracking
p5102
(dp5103
g4
I0
sg5
I1
ssVsulley
p5104
(dp5105
g4
I0
sg5
I1
ssVraubkopien
p5106
(dp5107
g4
I1
sg5
I0
ssVhaft
p5108
(dp5109
g4
I0
sg5
I1
ssVgro
p5110
(dp5111
g4
I4
sg5
I6
ssVkira
p5112
(dp5113
g4
I1
sg5
I0
ssVangegriffen
p5114
(dp5115
g4
I0
sg5
I4
ssVmock
p5116
(dp5117
g4
I1
sg5
I0
ssVdrau
p5118
(dp5119
g4
I1
sg5
I0
ssVluftschl
p5120
(dp5121
g4
I0
sg5
I3
ssVozeane
p5122
(dp5123
g4
I1
sg5
I0
ssVwohn
p5124
(dp5125
g4
I1
sg5
I0
ssVwohl
p5126
(dp5127
g4
I2
sg5
I0
ssVffentlicht
p5128
(dp5129
g4
I4
sg5
I0
ssVbauteil
p5130
(dp5131
g4
I1
sg5
I0
ssVlufthansa
p5132
(dp5133
g4
I0
sg5
I2
ssVamphetamine
p5134
(dp5135
g4
I0
sg5
I1
ssVentschuldigt
p5136
(dp5137
g4
I0
sg5
I1
ssVfrankreichs
p5138
(dp5139
g4
I0
sg5
I1
ssVchst
p5140
(dp5141
g4
I3
sg5
I1
ssVskandal
p5142
(dp5143
g4
I3
sg5
I0
ssVland
p5144
(dp5145
g4
I0
sg5
I2
ssVsucht
p5146
(dp5147
g4
I1
sg5
I1
ssVremis
p5148
(dp5149
g4
I0
sg5
I1
ssVyoutube
p5150
(dp5151
g4
I1
sg5
I1
ssVdvb
p5152
(dp5153
g4
I1
sg5
I0
ssVchse
p5154
(dp5155
g4
I1
sg5
I0
ssVsummit
p5156
(dp5157
g4
I1
sg5
I0
ssVoracle
p5158
(dp5159
g4
I1
sg5
I0
ssVschwung
p5160
(dp5161
g4
I1
sg5
I0
ssVcode
p5162
(dp5163
g4
I1
sg5
I0
ssVzivilrechtlichen
p5164
(dp5165
g4
I1
sg5
I0
ssVganz
p5166
(dp5167
g4
I5
sg5
I1
ssVapplikationen
p5168
(dp5169
g4
I1
sg5
I0
ssVostdeutschland
p5170
(dp5171
g4
I0
sg5
I1
ssVtoten
p5172
(dp5173
g4
I0
sg5
I1
ssVostukraine
p5174
(dp5175
g4
I0
sg5
I1
ssVstandort
p5176
(dp5177
g4
I1
sg5
I0
ssVjoachim
p5178
(dp5179
g4
I0
sg5
I1
ssVgrenzgebiet
p5180
(dp5181
g4
I0
sg5
I2
ssVcoolpix
p5182
(dp5183
g4
I2
sg5
I0
ssVwiederholungst
p5184
(dp5185
g4
I0
sg5
I1
ssVschwere
p5186
(dp5187
g4
I1
sg5
I0
ssVnder
p5188
(dp5189
g4
I0
sg5
I3
ssVentsprechend
p5190
(dp5191
g4
I1
sg5
I0
ssVtabakqualm
p5192
(dp5193
g4
I0
sg5
I1
ssVlibressl
p5194
(dp5195
g4
I1
sg5
I0
ssVautostarter
p5196
(dp5197
g4
I1
sg5
I0
ssVluftangriffe
p5198
(dp5199
g4
I0
sg5
I1
ssVprotokoll
p5200
(dp5201
g4
I1
sg5
I0
ssVdrogenlabore
p5202
(dp5203
g4
I0
sg5
I2
ssVtausende
p5204
(dp5205
g4
I0
sg5
I1
ssVheimische
p5206
(dp5207
g4
I0
sg5
I1
ssVgezwungen
p5208
(dp5209
g4
I1
sg5
I0
ssVhinrichtungsmethode
p5210
(dp5211
g4
I0
sg5
I1
ssVging
p5212
(dp5213
g4
I1
sg5
I0
ssVbombastische
p5214
(dp5215
g4
I1
sg5
I0
ssVfacebook
p5216
(dp5217
g4
I3
sg5
I3
ssVmobilit
p5218
(dp5219
g4
I1
sg5
I0
ssVassad
p5220
(dp5221
g4
I0
sg5
I1
ssVschweizerische
p5222
(dp5223
g4
I1
sg5
I0
ssVunerprobten
p5224
(dp5225
g4
I0
sg5
I1
ssVcarplay
p5226
(dp5227
g4
I1
sg5
I0
ssVzeit
p5228
(dp5229
g4
I1
sg5
I2
ssVneonlicht
p5230
(dp5231
g4
I0
sg5
I1
ssVkontrolliert
p5232
(dp5233
g4
I1
sg5
I0
ssVprototypen
p5234
(dp5235
g4
I1
sg5
I0
ssVstift
p5236
(dp5237
g4
I0
sg5
I1
ssVgabriel
p5238
(dp5239
g4
I0
sg5
I1
ssVbleiben
p5240
(dp5241
g4
I2
sg5
I1
ssVsturmkollege
p5242
(dp5243
g4
I0
sg5
I1
ssVverdanken
p5244
(dp5245
g4
I1
sg5
I0
ssVhrungsstils
p5246
(dp5247
g4
I0
sg5
I1
ssVdirekte
p5248
(dp5249
g4
I1
sg5
I0
ssVblitz
p5250
(dp5251
g4
I1
sg5
I0
ssVbeschlossen
p5252
(dp5253
g4
I0
sg5
I1
ssVklausur
p5254
(dp5255
g4
I0
sg5
I1
ssVtextstellen
p5256
(dp5257
g4
I1
sg5
I0
ssVdownload
p5258
(dp5259
g4
I3
sg5
I0
ssVbeseitigt
p5260
(dp5261
g4
I2
sg5
I0
ssVverbreitung
p5262
(dp5263
g4
I1
sg5
I0
ssVroboter
p5264
(dp5265
g4
I2
sg5
I1
ssVphablet
p5266
(dp5267
g4
I1
sg5
I0
ssVgesamtperformance
p5268
(dp5269
g4
I1
sg5
I0
ssVpower
p5270
(dp5271
g4
I1
sg5
I0
ssVfirma
p5272
(dp5273
g4
I1
sg5
I1
ssVpolen
p5274
(dp5275
g4
I0
sg5
I2
ssVmultimedia
p5276
(dp5277
g4
I1
sg5
I0
ssVvermeintliche
p5278
(dp5279
g4
I1
sg5
I0
ssVentwicklung
p5280
(dp5281
g4
I2
sg5
I0
ssVglasfaseranschluss
p5282
(dp5283
g4
I1
sg5
I0
ssVhuawei
p5284
(dp5285
g4
I1
sg5
I0
ssVeinige
p5286
(dp5287
g4
I7
sg5
I1
ssVmilliarden
p5288
(dp5289
g4
I0
sg5
I2
ssVkauft
p5290
(dp5291
g4
I1
sg5
I0
ssVblender
p5292
(dp5293
g4
I1
sg5
I0
ssVumung
p5294
(dp5295
g4
I0
sg5
I1
ssVerstellen
p5296
(dp5297
g4
I1
sg5
I0
ssVentgegen
p5298
(dp5299
g4
I1
sg5
I0
ssVchinas
p5300
(dp5301
g4
I1
sg5
I0
ssVfrankreich
p5302
(dp5303
g4
I2
sg5
I4
ssVkrise
p5304
(dp5305
g4
I0
sg5
I2
ssVkader
p5306
(dp5307
g4
I0
sg5
I1
ssVbaring
p5308
(dp5309
g4
I1
sg5
I0
ssVenergiesparen
p5310
(dp5311
g4
I0
sg5
I1
ssVler
p5312
(dp5313
g4
I0
sg5
I3
ssVaktionen
p5314
(dp5315
g4
I1
sg5
I0
ssVsexy
p5316
(dp5317
g4
I0
sg5
I1
ssVsind
p5318
(dp5319
g4
I12
sg5
I9
ssVherstellers
p5320
(dp5321
g4
I1
sg5
I0
ssVergeben
p5322
(dp5323
g4
I0
sg5
I1
ssVnstigere
p5324
(dp5325
g4
I1
sg5
I0
ssVmehmet
p5326
(dp5327
g4
I0
sg5
I1
ssVberichterstattung
p5328
(dp5329
g4
I0
sg5
I1
ssVelektronik
p5330
(dp5331
g4
I1
sg5
I0
ssVtrojaner
p5332
(dp5333
g4
I1
sg5
I0
ssVersten
p5334
(dp5335
g4
I5
sg5
I1
ssVrde
p5336
(dp5337
g4
I1
sg5
I0
ssVerster
p5338
(dp5339
g4
I1
sg5
I1
ssVcto
p5340
(dp5341
g4
I1
sg5
I0
ssVchtegleichgewicht
p5342
(dp5343
g4
I0
sg5
I1
ssVwie
p5344
(dp5345
g4
I11
sg5
I9
ssVfirefox
p5346
(dp5347
g4
I4
sg5
I0
ssVapple
p5348
(dp5349
g4
I11
sg5
I0
ssVauswahl
p5350
(dp5351
g4
I1
sg5
I0
ssVheart
p5352
(dp5353
g4
I1
sg5
I0
ssVnamen
p5354
(dp5355
g4
I1
sg5
I0
ssVeingebautem
p5356
(dp5357
g4
I1
sg5
I0
ssVapp
p5358
(dp5359
g4
I4
sg5
I0
ssVmietwohnung
p5360
(dp5361
g4
I0
sg5
I1
ssVbegegnung
p5362
(dp5363
g4
I2
sg5
I0
ssVprivate
p5364
(dp5365
g4
I1
sg5
I0
ssVapu
p5366
(dp5367
g4
I1
sg5
I0
ssVapi
p5368
(dp5369
g4
I1
sg5
I0
ssVwir
p5370
(dp5371
g4
I19
sg5
I0
ssVverbringt
p5372
(dp5373
g4
I0
sg5
I1
ssVtrat
p5374
(dp5375
g4
I0
sg5
I1
ssVtools
p5376
(dp5377
g4
I1
sg5
I0
ssVcloud
p5378
(dp5379
g4
I6
sg5
I0
ssVuse
p5380
(dp5381
g4
I2
sg5
I0
ssVandreas
p5382
(dp5383
g4
I1
sg5
I0
ssVche
p5384
(dp5385
g4
I3
sg5
I2
ssVusa
p5386
(dp5387
g4
I4
sg5
I3
ssVfen
p5388
(dp5389
g4
I0
sg5
I1
ssVbesten
p5390
(dp5391
g4
I9
sg5
I1
ssVgern
p5392
(dp5393
g4
I0
sg5
I1
ssVdeltaschleifer
p5394
(dp5395
g4
I1
sg5
I0
ssVfilialen
p5396
(dp5397
g4
I3
sg5
I0
ssVnoch
p5398
(dp5399
g4
I13
sg5
I7
ssVcht
p5400
(dp5401
g4
I0
sg5
I1
ssVkunde
p5402
(dp5403
g4
I0
sg5
I2
ssVkonkurrent
p5404
(dp5405
g4
I1
sg5
I0
ssVstarten
p5406
(dp5407
g4
I2
sg5
I0
ssVbrems
p5408
(dp5409
g4
I1
sg5
I0
ssVthema
p5410
(dp5411
g4
I1
sg5
I1
ssVosten
p5412
(dp5413
g4
I0
sg5
I2
ssVabgezapfte
p5414
(dp5415
g4
I1
sg5
I1
ssVzusammenspiel
p5416
(dp5417
g4
I1
sg5
I0
ssVlterei
p5418
(dp5419
g4
I0
sg5
I1
ssVonedrive
p5420
(dp5421
g4
I1
sg5
I0
ssVkonkurrenz
p5422
(dp5423
g4
I2
sg5
I1
ssVdrehstiften
p5424
(dp5425
g4
I0
sg5
I1
ssVmilliarde
p5426
(dp5427
g4
I0
sg5
I1
ssVpft
p5428
(dp5429
g4
I0
sg5
I1
ssVstartet
p5430
(dp5431
g4
I2
sg5
I0
ssVvertrauensfrage
p5432
(dp5433
g4
I0
sg5
I1
ssVvirenschutz
p5434
(dp5435
g4
I1
sg5
I0
ssVerung
p5436
(dp5437
g4
I0
sg5
I1
ssVjustin
p5438
(dp5439
g4
I0
sg5
I1
ssVfan
p5440
(dp5441
g4
I0
sg5
I1
ssVglich
p5442
(dp5443
g4
I8
sg5
I3
ssVhielt
p5444
(dp5445
g4
I0
sg5
I1
ssVschaltete
p5446
(dp5447
g4
I0
sg5
I1
ssVunkenrufen
p5448
(dp5449
g4
I1
sg5
I0
ssVkerne
p5450
(dp5451
g4
I3
sg5
I0
ssVaufrecht
p5452
(dp5453
g4
I1
sg5
I0
ssVottmar
p5454
(dp5455
g4
I0
sg5
I1
ssVpowercolor
p5456
(dp5457
g4
I1
sg5
I0
ssVschnellster
p5458
(dp5459
g4
I1
sg5
I0
ssVsicherheit
p5460
(dp5461
g4
I2
sg5
I0
ssVfranzosen
p5462
(dp5463
g4
I0
sg5
I3
ssVhrend
p5464
(dp5465
g4
I4
sg5
I2
ssVgeneraldebatte
p5466
(dp5467
g4
I0
sg5
I1
ssVmeer
p5468
(dp5469
g4
I1
sg5
I0
ssVtat
p5470
(dp5471
g4
I0
sg5
I1
ssVfeiert
p5472
(dp5473
g4
I1
sg5
I1
ssVfeierw
p5474
(dp5475
g4
I1
sg5
I0
ssVnarren
p5476
(dp5477
g4
I1
sg5
I0
ssVlinks
p5478
(dp5479
g4
I1
sg5
I0
ssVgescheitert
p5480
(dp5481
g4
I0
sg5
I1
ssVkennt
p5482
(dp5483
g4
I2
sg5
I0
ssVlinke
p5484
(dp5485
g4
I0
sg5
I2
ssVprofessor
p5486
(dp5487
g4
I0
sg5
I1
ssVtag
p5488
(dp5489
g4
I3
sg5
I0
ssVzwischen
p5490
(dp5491
g4
I3
sg5
I0
ssVtechnisch
p5492
(dp5493
g4
I1
sg5
I0
ssVstoffe
p5494
(dp5495
g4
I0
sg5
I1
ssVschneller
p5496
(dp5497
g4
I4
sg5
I0
ssVfeiern
p5498
(dp5499
g4
I0
sg5
I1
ssVirrsinn
p5500
(dp5501
g4
I1
sg5
I0
ssVmalware
p5502
(dp5503
g4
I1
sg5
I0
ssVrohwetter
p5504
(dp5505
g4
I0
sg5
I1
ssVgratis
p5506
(dp5507
g4
I3
sg5
I0
ssVbedeutung
p5508
(dp5509
g4
I2
sg5
I1
ssVrkte
p5510
(dp5511
g4
I0
sg5
I1
ssVaff
p5512
(dp5513
g4
I1
sg5
I1
ssVsie
p5514
(dp5515
g4
I30
sg5
I15
ssVdicke
p5516
(dp5517
g4
I1
sg5
I0
ssVverborgenen
p5518
(dp5519
g4
I0
sg5
I1
ssVziemlich
p5520
(dp5521
g4
I1
sg5
I0
ssVklau
p5522
(dp5523
g4
I0
sg5
I1
ssVherunterladen
p5524
(dp5525
g4
I3
sg5
I0
ssVwallpaper
p5526
(dp5527
g4
I1
sg5
I0
ssVbombardiert
p5528
(dp5529
g4
I0
sg5
I1
ssVfrau
p5530
(dp5531
g4
I1
sg5
I2
ssVnotebook
p5532
(dp5533
g4
I4
sg5
I0
ssVmen
p5534
(dp5535
g4
I1
sg5
I0
ssVwebanwendungen
p5536
(dp5537
g4
I1
sg5
I0
ssVeher
p5538
(dp5539
g4
I1
sg5
I0
ssVsteine
p5540
(dp5541
g4
I1
sg5
I0
ssVkritisiert
p5542
(dp5543
g4
I1
sg5
I0
ssVgigabyte
p5544
(dp5545
g4
I1
sg5
I0
ssVafd
p5546
(dp5547
g4
I0
sg5
I1
ssVbetatscht
p5548
(dp5549
g4
I0
sg5
I1
ssVagenda
p5550
(dp5551
g4
I1
sg5
I0
ssVehrgeizigere
p5552
(dp5553
g4
I0
sg5
I1
ssVhessen
p5554
(dp5555
g4
I0
sg5
I2
ssVklarheit
p5556
(dp5557
g4
I1
sg5
I0
ssVwahlen
p5558
(dp5559
g4
I0
sg5
I1
ssVkonditionen
p5560
(dp5561
g4
I1
sg5
I0
ssVmeter
p5562
(dp5563
g4
I0
sg5
I2
ssVnstige
p5564
(dp5565
g4
I1
sg5
I0
ssVsichtbaren
p5566
(dp5567
g4
I1
sg5
I0
ssVleistungsstarken
p5568
(dp5569
g4
I1
sg5
I0
ssVantoine
p5570
(dp5571
g4
I0
sg5
I1
ssVdoppelpack
p5572
(dp5573
g4
I0
sg5
I1
ssVmenge
p5574
(dp5575
g4
I3
sg5
I1
ssVhoch
p5576
(dp5577
g4
I1
sg5
I0
ssVjustizminister
p5578
(dp5579
g4
I0
sg5
I4
ssVgespr
p5580
(dp5581
g4
I0
sg5
I2
ssVnotebooks
p5582
(dp5583
g4
I1
sg5
I0
ssVhligen
p5584
(dp5585
g4
I1
sg5
I0
ssVzehn
p5586
(dp5587
g4
I2
sg5
I1
ssVstigt
p5588
(dp5589
g4
I0
sg5
I1
ssVumsatzes
p5590
(dp5591
g4
I1
sg5
I0
ssVsigmar
p5592
(dp5593
g4
I0
sg5
I1
ssVpichai
p5594
(dp5595
g4
I1
sg5
I0
ssVpixel
p5596
(dp5597
g4
I1
sg5
I0
ssVpolitische
p5598
(dp5599
g4
I1
sg5
I1
ssVdaf
p5600
(dp5601
g4
I3
sg5
I1
ssVwaren
p5602
(dp5603
g4
I1
sg5
I2
ssVauto
p5604
(dp5605
g4
I3
sg5
I0
ssVmaterial
p5606
(dp5607
g4
I1
sg5
I0
ssVtoshiba
p5608
(dp5609
g4
I1
sg5
I0
ssVmarktforscher
p5610
(dp5611
g4
I1
sg5
I0
ssVzugeh
p5612
(dp5613
g4
I1
sg5
I0
ssVdoch
p5614
(dp5615
g4
I6
sg5
I10
ssVhandw
p5616
(dp5617
g4
I1
sg5
I0
ssVdar
p5618
(dp5619
g4
I3
sg5
I0
ssVdas
p5620
(dp5621
g4
I68
sg5
I29
ssVnotstandsregierung
p5622
(dp5623
g4
I0
sg5
I1
ssVkostenfalle
p5624
(dp5625
g4
I1
sg5
I0
ssVbesetzten
p5626
(dp5627
g4
I0
sg5
I1
ssVhandy
p5628
(dp5629
g4
I6
sg5
I0
ssVprojekte
p5630
(dp5631
g4
I0
sg5
I1
ssVwarnen
p5632
(dp5633
g4
I0
sg5
I2
ssVrennen
p5634
(dp5635
g4
I1
sg5
I0
ssVprozessor
p5636
(dp5637
g4
I2
sg5
I0
ssVstudentin
p5638
(dp5639
g4
I0
sg5
I1
ssVeben
p5640
(dp5641
g4
I1
sg5
I1
ssVaufbauen
p5642
(dp5643
g4
I1
sg5
I0
ssVberliner
p5644
(dp5645
g4
I1
sg5
I0
ssVpeking
p5646
(dp5647
g4
I0
sg5
I1
ssVanzahl
p5648
(dp5649
g4
I1
sg5
I0
ssVprojekts
p5650
(dp5651
g4
I1
sg5
I0
ssVmuntari
p5652
(dp5653
g4
I0
sg5
I1
ssVkommt
p5654
(dp5655
g4
I5
sg5
I1
ssVrenderer
p5656
(dp5657
g4
I1
sg5
I0
ssVguten
p5658
(dp5659
g4
I2
sg5
I0
ssVnachgeholt
p5660
(dp5661
g4
I1
sg5
I0
ssVgutem
p5662
(dp5663
g4
I1
sg5
I0
ssVwarten
p5664
(dp5665
g4
I1
sg5
I0
ssVberraschend
p5666
(dp5667
g4
I1
sg5
I0
ssVhlt
p5668
(dp5669
g4
I0
sg5
I1
ssVkriminelle
p5670
(dp5671
g4
I1
sg5
I0
ssVliegen
p5672
(dp5673
g4
I1
sg5
I0
ssVguter
p5674
(dp5675
g4
I1
sg5
I0
ssVgutes
p5676
(dp5677
g4
I1
sg5
I0
ssVrez
p5678
(dp5679
g4
I0
sg5
I1
ssVkritik
p5680
(dp5681
g4
I1
sg5
I0
ssVherausgesucht
p5682
(dp5683
g4
I1
sg5
I0
ssVreflow
p5684
(dp5685
g4
I1
sg5
I0
ssVvalve
p5686
(dp5687
g4
I1
sg5
I0
ssVchaos
p5688
(dp5689
g4
I1
sg5
I0
ssVjegliche
p5690
(dp5691
g4
I1
sg5
I0
ssVporoschenko
p5692
(dp5693
g4
I0
sg5
I1
ssVwerden
p5694
(dp5695
g4
I10
sg5
I13
ssVerfurt
p5696
(dp5697
g4
I0
sg5
I1
ssVren
p5698
(dp5699
g4
I3
sg5
I3
ssVkopien
p5700
(dp5701
g4
I1
sg5
I0
ssVbestreitet
p5702
(dp5703
g4
I0
sg5
I1
ssVwandelt
p5704
(dp5705
g4
I1
sg5
I0
ssVred
p5706
(dp5707
g4
I1
sg5
I0
ssVfokus
p5708
(dp5709
g4
I3
sg5
I0
ssVbilder
p5710
(dp5711
g4
I2
sg5
I0
ssVworkflow
p5712
(dp5713
g4
I1
sg5
I0
ssVmietrecht
p5714
(dp5715
g4
I0
sg5
I1
ssVipod
p5716
(dp5717
g4
I1
sg5
I0
ssVtempo
p5718
(dp5719
g4
I1
sg5
I0
ssVhyundai
p5720
(dp5721
g4
I1
sg5
I0
ssVaufladbaren
p5722
(dp5723
g4
I1
sg5
I0
ssVkollegin
p5724
(dp5725
g4
I0
sg5
I1
ssVkaum
p5726
(dp5727
g4
I2
sg5
I3
ssVbilden
p5728
(dp5729
g4
I1
sg5
I1
ssVkompliziert
p5730
(dp5731
g4
I1
sg5
I0
ssVerntet
p5732
(dp5733
g4
I1
sg5
I0
ssVgeraten
p5734
(dp5735
g4
I0
sg5
I2
ssVstaatliche
p5736
(dp5737
g4
I1
sg5
I0
ssVhochschulen
p5738
(dp5739
g4
I0
sg5
I1
ssVgaben
p5740
(dp5741
g4
I0
sg5
I1
ssVschuldenfreien
p5742
(dp5743
g4
I0
sg5
I1
ssVpolitisch
p5744
(dp5745
g4
I0
sg5
I1
ssVlandgericht
p5746
(dp5747
g4
I0
sg5
I1
ssVlte
p5748
(dp5749
g4
I2
sg5
I0
ssVdeshalb
p5750
(dp5751
g4
I1
sg5
I2
ssVschadcode
p5752
(dp5753
g4
I2
sg5
I0
ssVauftritt
p5754
(dp5755
g4
I0
sg5
I1
ssVpraxis
p5756
(dp5757
g4
I2
sg5
I0
ssVstarken
p5758
(dp5759
g4
I1
sg5
I0
ssVgauck
p5760
(dp5761
g4
I0
sg5
I2
ssVindesign
p5762
(dp5763
g4
I1
sg5
I0
ssVihr
p5764
(dp5765
g4
I8
sg5
I0
ssVblogger
p5766
(dp5767
g4
I1
sg5
I0
ssVndig
p5768
(dp5769
g4
I2
sg5
I0
ssVnetzangelegenheiten
p5770
(dp5771
g4
I1
sg5
I0
ssVleica
p5772
(dp5773
g4
I1
sg5
I0
ssVdamit
p5774
(dp5775
g4
I6
sg5
I1
ssVihm
p5776
(dp5777
g4
I0
sg5
I3
ssVstarker
p5778
(dp5779
g4
I0
sg5
I1
ssVerkl
p5780
(dp5781
g4
I1
sg5
I2
ssVsonderlich
p5782
(dp5783
g4
I1
sg5
I0
ssVuscht
p5784
(dp5785
g4
I1
sg5
I0
ssVchinesische
p5786
(dp5787
g4
I2
sg5
I0
ssVdata
p5788
(dp5789
g4
I1
sg5
I0
ssVsicherheitsbauteil
p5790
(dp5791
g4
I2
sg5
I0
ssVsystem
p5792
(dp5793
g4
I4
sg5
I0
ssVsimulieren
p5794
(dp5795
g4
I1
sg5
I0
ssVnull
p5796
(dp5797
g4
I0
sg5
I1
ssVfolgt
p5798
(dp5799
g4
I1
sg5
I0
ssVhindukusch
p5800
(dp5801
g4
I0
sg5
I1
ssVsozialdemokrat
p5802
(dp5803
g4
I0
sg5
I1
ssVgefahr
p5804
(dp5805
g4
I1
sg5
I0
ssVspeicher
p5806
(dp5807
g4
I4
sg5
I0
ssVtermin
p5808
(dp5809
g4
I1
sg5
I0
ssVherrschaft
p5810
(dp5811
g4
I0
sg5
I1
ssVforscher
p5812
(dp5813
g4
I1
sg5
I2
ssVischer
p5814
(dp5815
g4
I1
sg5
I0
ssVangeboten
p5816
(dp5817
g4
I1
sg5
I0
ssVgear
p5818
(dp5819
g4
I2
sg5
I0
ssVller
p5820
(dp5821
g4
I0
sg5
I1
ssVnstiger
p5822
(dp5823
g4
I3
sg5
I0
ssVjuli
p5824
(dp5825
g4
I3
sg5
I0
ssVstress
p5826
(dp5827
g4
I0
sg5
I1
ssVeinnahmen
p5828
(dp5829
g4
I0
sg5
I1
ssVangeblich
p5830
(dp5831
g4
I1
sg5
I1
ssVschweizer
p5832
(dp5833
g4
I0
sg5
I1
ssVdiskutieren
p5834
(dp5835
g4
I1
sg5
I1
ssVspiegel
p5836
(dp5837
g4
I2
sg5
I0
ssVude
p5838
(dp5839
g4
I1
sg5
I0
ssVliste
p5840
(dp5841
g4
I1
sg5
I1
ssVdafrikanischer
p5842
(dp5843
g4
I1
sg5
I0
ssVhaupts
p5844
(dp5845
g4
I1
sg5
I0
ssVkrankenkassen
p5846
(dp5847
g4
I0
sg5
I1
ssVbaureihe
p5848
(dp5849
g4
I1
sg5
I0
ssVmodernen
p5850
(dp5851
g4
I1
sg5
I1
ssVbek
p5852
(dp5853
g4
I1
sg5
I0
ssVbeh
p5854
(dp5855
g4
I2
sg5
I0
ssVbei
p5856
(dp5857
g4
I22
sg5
I9
ssVben
p5858
(dp5859
g4
I1
sg5
I1
ssVklickerei
p5860
(dp5861
g4
I1
sg5
I0
ssVbem
p5862
(dp5863
g4
I0
sg5
I1
ssVrasant
p5864
(dp5865
g4
I0
sg5
I1
ssVbed
p5866
(dp5867
g4
I2
sg5
I0
ssVunterbrochen
p5868
(dp5869
g4
I1
sg5
I0
ssVschetrockners
p5870
(dp5871
g4
I1
sg5
I0
ssVber
p5872
(dp5873
g4
I19
sg5
I15
ssVverbindet
p5874
(dp5875
g4
I1
sg5
I0
ssVeigentliche
p5876
(dp5877
g4
I1
sg5
I0
ssVdigitalkamera
p5878
(dp5879
g4
I4
sg5
I0
ssVseinem
p5880
(dp5881
g4
I2
sg5
I1
ssVseinen
p5882
(dp5883
g4
I5
sg5
I1
ssVringer
p5884
(dp5885
g4
I0
sg5
I2
ssVexistenzberechtigung
p5886
(dp5887
g4
I0
sg5
I1
ssVwesentlichen
p5888
(dp5889
g4
I1
sg5
I0
ssVbesatzerstaat
p5890
(dp5891
g4
I0
sg5
I1
ssVwirbelstr
p5892
(dp5893
g4
I1
sg5
I0
ssVsatellitenbilder
p5894
(dp5895
g4
I1
sg5
I0
ssVklamotte
p5896
(dp5897
g4
I1
sg5
I0
ssVseiner
p5898
(dp5899
g4
I4
sg5
I2
ssVpaperwhite
p5900
(dp5901
g4
I1
sg5
I0
ssVdrucker
p5902
(dp5903
g4
I4
sg5
I1
ssVexperten
p5904
(dp5905
g4
I1
sg5
I0
ssVherstellung
p5906
(dp5907
g4
I0
sg5
I1
ssVeinfach
p5908
(dp5909
g4
I4
sg5
I0
ssVleidige
p5910
(dp5911
g4
I0
sg5
I1
ssVabgeh
p5912
(dp5913
g4
I0
sg5
I1
ssVmarkierten
p5914
(dp5915
g4
I1
sg5
I0
ssVbeeindruckend
p5916
(dp5917
g4
I0
sg5
I1
ssVdrucken
p5918
(dp5919
g4
I1
sg5
I0
ssVmit
p5920
(dp5921
g4
I58
sg5
I21
ssVberall
p5922
(dp5923
g4
I2
sg5
I0
ssVhochkonjunktur
p5924
(dp5925
g4
I0
sg5
I1
ssVsexuell
p5926
(dp5927
g4
I0
sg5
I2
ssVdatenknotenpunkt
p5928
(dp5929
g4
I1
sg5
I0
ssVpresseverlage
p5930
(dp5931
g4
I1
sg5
I0
ssVregierungschef
p5932
(dp5933
g4
I0
sg5
I5
ssVhilfreiche
p5934
(dp5935
g4
I1
sg5
I1
ssVschienennahverkehr
p5936
(dp5937
g4
I0
sg5
I1
ssVmissionen
p5938
(dp5939
g4
I1
sg5
I0
ssVaktiver
p5940
(dp5941
g4
I0
sg5
I1
ssVnderungen
p5942
(dp5943
g4
I2
sg5
I0
ssVsentierte
p5944
(dp5945
g4
I1
sg5
I0
ssVprozessorkernen
p5946
(dp5947
g4
I1
sg5
I0
ssVsegment
p5948
(dp5949
g4
I1
sg5
I0
ssVhilferufe
p5950
(dp5951
g4
I0
sg5
I1
ssVcke
p5952
(dp5953
g4
I3
sg5
I0
ssVnordfriesland
p5954
(dp5955
g4
I1
sg5
I0
ssVplattformen
p5956
(dp5957
g4
I1
sg5
I0
ssVbeziehen
p5958
(dp5959
g4
I1
sg5
I0
ssVschule
p5960
(dp5961
g4
I0
sg5
I1
ssVschuld
p5962
(dp5963
g4
I0
sg5
I1
ssVberbieten
p5964
(dp5965
g4
I1
sg5
I0
ssVakoya
p5966
(dp5967
g4
I2
sg5
I0
ssVckt
p5968
(dp5969
g4
I0
sg5
I1
ssVaktualisiert
p5970
(dp5971
g4
I2
sg5
I0
ssVdenn
p5972
(dp5973
g4
I3
sg5
I0
ssVurheberrecht
p5974
(dp5975
g4
I1
sg5
I0
ssVskunk
p5976
(dp5977
g4
I1
sg5
I0
ssVkehrtwendung
p5978
(dp5979
g4
I1
sg5
I0
ssVneuerung
p5980
(dp5981
g4
I1
sg5
I0
ssVpresseverleger
p5982
(dp5983
g4
I1
sg5
I0
ssVafrikameister
p5984
(dp5985
g4
I0
sg5
I1
ssVgeheimdienst
p5986
(dp5987
g4
I1
sg5
I1
ssVstehen
p5988
(dp5989
g4
I1
sg5
I0
ssVschwappt
p5990
(dp5991
g4
I1
sg5
I0
ssVpasst
p5992
(dp5993
g4
I0
sg5
I1
ssVcharles
p5994
(dp5995
g4
I1
sg5
I0
ssVdbg
p5996
(dp5997
g4
I1
sg5
I0
ssVkontrolle
p5998
(dp5999
g4
I3
sg5
I0
ssVkopiert
p6000
(dp6001
g4
I1
sg5
I0
ssVrdermilliarden
p6002
(dp6003
g4
I0
sg5
I1
ssVportfolio
p6004
(dp6005
g4
I1
sg5
I0
ssVgestellt
p6006
(dp6007
g4
I1
sg5
I0
ssVwor
p6008
(dp6009
g4
I0
sg5
I1
ssVrubrik
p6010
(dp6011
g4
I1
sg5
I0
ssVinternetkonzern
p6012
(dp6013
g4
I1
sg5
I0
ssVnachrichten
p6014
(dp6015
g4
I1
sg5
I0
ssVmagine
p6016
(dp6017
g4
I1
sg5
I0
ssVtreppenhaus
p6018
(dp6019
g4
I0
sg5
I1
ssVradeln
p6020
(dp6021
g4
I0
sg5
I1
ssVngt
p6022
(dp6023
g4
I0
sg5
I3
ssVftemangel
p6024
(dp6025
g4
I0
sg5
I1
ssVkartellbeschwerde
p6026
(dp6027
g4
I1
sg5
I0
ssVtodeskandidaten
p6028
(dp6029
g4
I0
sg5
I1
ssVerhalten
p6030
(dp6031
g4
I2
sg5
I0
ssVerheblicher
p6032
(dp6033
g4
I0
sg5
I1
ssVmythen
p6034
(dp6035
g4
I0
sg5
I1
ssVvermarktung
p6036
(dp6037
g4
I0
sg5
I1
ssVeinsatz
p6038
(dp6039
g4
I2
sg5
I2
ssVrgen
p6040
(dp6041
g4
I1
sg5
I2
ssVmobilfunk
p6042
(dp6043
g4
I3
sg5
I0
ssVkopf
p6044
(dp6045
g4
I0
sg5
I1
ssVpassend
p6046
(dp6047
g4
I1
sg5
I0
ssVstaats
p6048
(dp6049
g4
I1
sg5
I0
ssVrger
p6050
(dp6051
g4
I0
sg5
I4
ssVmehrheit
p6052
(dp6053
g4
I0
sg5
I2
ssVetwa
p6054
(dp6055
g4
I1
sg5
I1
ssVillustrator
p6056
(dp6057
g4
I1
sg5
I0
ssVaufruhr
p6058
(dp6059
g4
I1
sg5
I1
ssVimmer
p6060
(dp6061
g4
I4
sg5
I2
ssVchips
p6062
(dp6063
g4
I1
sg5
I0
ssVlschung
p6064
(dp6065
g4
I1
sg5
I0
ssVzeigen
p6066
(dp6067
g4
I10
sg5
I0
ssVevolution
p6068
(dp6069
g4
I1
sg5
I2
ssVideologische
p6070
(dp6071
g4
I0
sg5
I1
ssVviel
p6072
(dp6073
g4
I1
sg5
I2
ssVkanzler
p6074
(dp6075
g4
I0
sg5
I2
ssVpartie
p6076
(dp6077
g4
I2
sg5
I0
ssVngig
p6078
(dp6079
g4
I1
sg5
I1
ssVriesenspeicher
p6080
(dp6081
g4
I1
sg5
I0
ssVstimmen
p6082
(dp6083
g4
I0
sg5
I1
ssVreif
p6084
(dp6085
g4
I1
sg5
I0
ssVaeg
p6086
(dp6087
g4
I2
sg5
I0
ssVmercedes
p6088
(dp6089
g4
I1
sg5
I0
ssVkeinen
p6090
(dp6091
g4
I1
sg5
I0
ssVcycles
p6092
(dp6093
g4
I1
sg5
I0
ssVgraf
p6094
(dp6095
g4
I0
sg5
I1
ssVview
p6096
(dp6097
g4
I2
sg5
I0
ssVhilft
p6098
(dp6099
g4
I1
sg5
I1
ssVkarten
p6100
(dp6101
g4
I4
sg5
I0
ssVgefallen
p6102
(dp6103
g4
I1
sg5
I0
ssVgooglement
p6104
(dp6105
g4
I0
sg5
I1
ssVverheerende
p6106
(dp6107
g4
I0
sg5
I1
ssVsetzen
p6108
(dp6109
g4
I2
sg5
I1
ssVumstiegsszenario
p6110
(dp6111
g4
I1
sg5
I0
ssVrollen
p6112
(dp6113
g4
I1
sg5
I0
ssVbessere
p6114
(dp6115
g4
I1
sg5
I0
ssVkriminellen
p6116
(dp6117
g4
I0
sg5
I1
ssVhilfe
p6118
(dp6119
g4
I0
sg5
I1
ssVneben
p6120
(dp6121
g4
I4
sg5
I0
ssVentstand
p6122
(dp6123
g4
I1
sg5
I0
ssVauseinander
p6124
(dp6125
g4
I0
sg5
I1
ssVcomputex
p6126
(dp6127
g4
I1
sg5
I0
ssVufigsten
p6128
(dp6129
g4
I1
sg5
I0
ssVsimplelocker
p6130
(dp6131
g4
I1
sg5
I0
ssVgmail
p6132
(dp6133
g4
I1
sg5
I0
ssVhaushalt
p6134
(dp6135
g4
I0
sg5
I1
ssVwird
p6136
(dp6137
g4
I12
sg5
I6
ssVstatt
p6138
(dp6139
g4
I1
sg5
I0
ssVreform
p6140
(dp6141
g4
I0
sg5
I1
ssVdreierpacks
p6142
(dp6143
g4
I0
sg5
I1
ssVmobildruckstandards
p6144
(dp6145
g4
I1
sg5
I0
ssVinfografik
p6146
(dp6147
g4
I0
sg5
I2
ssVgalaxy
p6148
(dp6149
g4
I1
sg5
I0
ssVprogress
p6150
(dp6151
g4
I1
sg5
I0
ssVtolerieren
p6152
(dp6153
g4
I0
sg5
I1
ssVenthalten
p6154
(dp6155
g4
I1
sg5
I1
ssVwellen
p6156
(dp6157
g4
I1
sg5
I0
ssVkeynote
p6158
(dp6159
g4
I3
sg5
I0
ssVerdogan
p6160
(dp6161
g4
I0
sg5
I1
ssVhrende
p6162
(dp6163
g4
I0
sg5
I1
ssVstrider
p6164
(dp6165
g4
I1
sg5
I0
ssVspeicherlimit
p6166
(dp6167
g4
I1
sg5
I0
ssVjob
p6168
(dp6169
g4
I0
sg5
I1
ssVende
p6170
(dp6171
g4
I4
sg5
I0
ssVjahrelang
p6172
(dp6173
g4
I2
sg5
I1
ssVhilfsmittel
p6174
(dp6175
g4
I1
sg5
I0
ssVsparen
p6176
(dp6177
g4
I2
sg5
I1
ssVhits
p6178
(dp6179
g4
I1
sg5
I0
ssVtiert
p6180
(dp6181
g4
I1
sg5
I0
ssVhrige
p6182
(dp6183
g4
I1
sg5
I1
ssVnorbert
p6184
(dp6185
g4
I0
sg5
I1
ssVverdachts
p6186
(dp6187
g4
I0
sg5
I1
ssVdruc
p6188
(dp6189
g4
I1
sg5
I0
ssVluftwaffe
p6190
(dp6191
g4
I0
sg5
I3
ssVradarfallen
p6192
(dp6193
g4
I1
sg5
I0
ssVflott
p6194
(dp6195
g4
I1
sg5
I0
ssVapril
p6196
(dp6197
g4
I2
sg5
I0
ssVvoller
p6198
(dp6199
g4
I1
sg5
I0
ssVgleichen
p6200
(dp6201
g4
I1
sg5
I0
ssVstreams
p6202
(dp6203
g4
I1
sg5
I0
ssVmassenansammlungen
p6204
(dp6205
g4
I1
sg5
I0
ssVverkaufen
p6206
(dp6207
g4
I1
sg5
I0
ssVkarriere
p6208
(dp6209
g4
I0
sg5
I1
ssVbenzema
p6210
(dp6211
g4
I0
sg5
I1
ssVuruguays
p6212
(dp6213
g4
I0
sg5
I1
ssVnetzwerke
p6214
(dp6215
g4
I0
sg5
I1
ssVsuchen
p6216
(dp6217
g4
I1
sg5
I0
ssVaktuelle
p6218
(dp6219
g4
I2
sg5
I0
ssVrechtlichen
p6220
(dp6221
g4
I1
sg5
I0
ssVgroben
p6222
(dp6223
g4
I1
sg5
I0
ssVparlament
p6224
(dp6225
g4
I0
sg5
I3
ssVbegehbare
p6226
(dp6227
g4
I1
sg5
I0
ssVdesignerdrogen
p6228
(dp6229
g4
I0
sg5
I2
ssVfakten
p6230
(dp6231
g4
I2
sg5
I0
ssVnews
p6232
(dp6233
g4
I1
sg5
I0
ssVwohnzimmer
p6234
(dp6235
g4
I1
sg5
I0
ssVglatt
p6236
(dp6237
g4
I1
sg5
I0
ssVklare
p6238
(dp6239
g4
I0
sg5
I1
ssVfpgas
p6240
(dp6241
g4
I1
sg5
I0
ssVsparpotential
p6242
(dp6243
g4
I1
sg5
I0
ssVpin
p6244
(dp6245
g4
I0
sg5
I1
ssVweltmeeren
p6246
(dp6247
g4
I1
sg5
I0
ssVprince
p6248
(dp6249
g4
I0
sg5
I1
ssVeng
p6250
(dp6251
g4
I0
sg5
I1
ssVtayyip
p6252
(dp6253
g4
I0
sg5
I1
ssVrprotokolle
p6254
(dp6255
g4
I0
sg5
I1
ssVsitzt
p6256
(dp6257
g4
I0
sg5
I1
ssVstumpfen
p6258
(dp6259
g4
I0
sg5
I1
ssVmittelpunkt
p6260
(dp6261
g4
I1
sg5
I0
ssVpraktische
p6262
(dp6263
g4
I1
sg5
I0
ssVgeneral
p6264
(dp6265
g4
I0
sg5
I2
ssVspektakel
p6266
(dp6267
g4
I0
sg5
I1
ssVwurde
p6268
(dp6269
g4
I5
sg5
I1
ssVhmt
p6270
(dp6271
g4
I1
sg5
I1
ssVrmiger
p6272
(dp6273
g4
I0
sg5
I1
ssVbesonderes
p6274
(dp6275
g4
I1
sg5
I0
ssVngigen
p6276
(dp6277
g4
I1
sg5
I0
ssVuns
p6278
(dp6279
g4
I2
sg5
I2
ssVspricht
p6280
(dp6281
g4
I1
sg5
I1
ssVhamburg
p6282
(dp6283
g4
I0
sg5
I1
ssVrahmen
p6284
(dp6285
g4
I1
sg5
I0
ssVngnis
p6286
(dp6287
g4
I0
sg5
I1
ssVselten
p6288
(dp6289
g4
I1
sg5
I0
ssVweltkulturerbe
p6290
(dp6291
g4
I0
sg5
I1
ssVwzor
p6292
(dp6293
g4
I1
sg5
I0
ssVmaus
p6294
(dp6295
g4
I1
sg5
I1
ssVsmartphones
p6296
(dp6297
g4
I7
sg5
I1
ssVmaut
p6298
(dp6299
g4
I0
sg5
I1
ssVpsychoaktive
p6300
(dp6301
g4
I0
sg5
I1
ssVtheoretisch
p6302
(dp6303
g4
I1
sg5
I0
ssVprodukte
p6304
(dp6305
g4
I1
sg5
I1
ssVwachsender
p6306
(dp6307
g4
I1
sg5
I0
ssVwill
p6308
(dp6309
g4
I5
sg5
I14
ssVwhistleblowers
p6310
(dp6311
g4
I1
sg5
I0
ssVfinanzinvestor
p6312
(dp6313
g4
I1
sg5
I0
ssVdesignrichtlinien
p6314
(dp6315
g4
I1
sg5
I0
ssVeintr
p6316
(dp6317
g4
I1
sg5
I0
ssVexterne
p6318
(dp6319
g4
I1
sg5
I0
ssVtaiwanischen
p6320
(dp6321
g4
I1
sg5
I0
ssVstromtrasse
p6322
(dp6323
g4
I0
sg5
I1
ssVhdtv
p6324
(dp6325
g4
I1
sg5
I0
ssVdemo
p6326
(dp6327
g4
I0
sg5
I1
ssVverteilt
p6328
(dp6329
g4
I1
sg5
I0
ssVrtig
p6330
(dp6331
g4
I1
sg5
I0
ssVhardware
p6332
(dp6333
g4
I4
sg5
I0
ssVwirbt
p6334
(dp6335
g4
I0
sg5
I4
ssVleders
p6336
(dp6337
g4
I3
sg5
I0
ssVdual
p6338
(dp6339
g4
I1
sg5
I0
ssVgeschwindigkeit
p6340
(dp6341
g4
I2
sg5
I0
ssVpartner
p6342
(dp6343
g4
I1
sg5
I0
ssVkommen
p6344
(dp6345
g4
I0
sg5
I2
ssVmozillas
p6346
(dp6347
g4
I1
sg5
I0
ssVstarcraft
p6348
(dp6349
g4
I1
sg5
I0
ssVcapture
p6350
(dp6351
g4
I1
sg5
I0
ssVsowie
p6352
(dp6353
g4
I2
sg5
I0
ssVjapaner
p6354
(dp6355
g4
I1
sg5
I0
ssVikeahackers
p6356
(dp6357
g4
I1
sg5
I0
ssVspitzenposition
p6358
(dp6359
g4
I1
sg5
I0
ssVhandwerk
p6360
(dp6361
g4
I1
sg5
I0
ssVnschen
p6362
(dp6363
g4
I0
sg5
I1
ssVunertr
p6364
(dp6365
g4
I0
sg5
I1
ssVwelche
p6366
(dp6367
g4
I2
sg5
I0
ssVandroid
p6368
(dp6369
g4
I21
sg5
I0
ssVrfen
p6370
(dp6371
g4
I1
sg5
I1
ssVretter
p6372
(dp6373
g4
I0
sg5
I2
ssVgezogen
p6374
(dp6375
g4
I0
sg5
I1
ssVtabellenrechner
p6376
(dp6377
g4
I1
sg5
I0
ssVhttp
p6378
(dp6379
g4
I1
sg5
I0
ssVrettet
p6380
(dp6381
g4
I0
sg5
I1
ssVbald
p6382
(dp6383
g4
I6
sg5
I2
ssVios
p6384
(dp6385
g4
I2
sg5
I0
ssVpromi
p6386
(dp6387
g4
I0
sg5
I1
ssVnightly
p6388
(dp6389
g4
I1
sg5
I0
ssVpfung
p6390
(dp6391
g4
I0
sg5
I1
ssVstudent
p6392
(dp6393
g4
I1
sg5
I0
ssVtranssexuelle
p6394
(dp6395
g4
I0
sg5
I1
ssVbersicht
p6396
(dp6397
g4
I1
sg5
I0
ssVretten
p6398
(dp6399
g4
I0
sg5
I1
ssValleine
p6400
(dp6401
g4
I0
sg5
I1
ssVempfehlungen
p6402
(dp6403
g4
I1
sg5
I0
ssVnachrichtenagentur
p6404
(dp6405
g4
I1
sg5
I0
ssVsoviel
p6406
(dp6407
g4
I1
sg5
I0
ssVnger
p6408
(dp6409
g4
I0
sg5
I1
ssVkostenlosen
p6410
(dp6411
g4
I2
sg5
I0
ssVintiative
p6412
(dp6413
g4
I1
sg5
I0
ssVverhallt
p6414
(dp6415
g4
I1
sg5
I0
ssVtheodor
p6416
(dp6417
g4
I0
sg5
I1
ssVernsthafte
p6418
(dp6419
g4
I2
sg5
I0
ssVsche
p6420
(dp6421
g4
I1
sg5
I0
ssVwelt
p6422
(dp6423
g4
I5
sg5
I3
ssVpersonalpaket
p6424
(dp6425
g4
I0
sg5
I1
ssVoft
p6426
(dp6427
g4
I2
sg5
I0
ssVschn
p6428
(dp6429
g4
I4
sg5
I1
ssVschl
p6430
(dp6431
g4
I2
sg5
I1
ssVschm
p6432
(dp6433
g4
I0
sg5
I1
ssVstauraum
p6434
(dp6435
g4
I1
sg5
I0
ssVlaufende
p6436
(dp6437
g4
I1
sg5
I0
ssVtaskleiste
p6438
(dp6439
g4
I1
sg5
I0
ssVmfc
p6440
(dp6441
g4
I1
sg5
I0
ssVsselt
p6442
(dp6443
g4
I1
sg5
I0
ssVtrojaners
p6444
(dp6445
g4
I1
sg5
I0
ssVlivewire
p6446
(dp6447
g4
I1
sg5
I0
ssVitalien
p6448
(dp6449
g4
I0
sg5
I1
ssVprominenter
p6450
(dp6451
g4
I0
sg5
I2
ssVsicherheitsexperten
p6452
(dp6453
g4
I1
sg5
I0
ssVllig
p6454
(dp6455
g4
I1
sg5
I0
ssVglichkeiten
p6456
(dp6457
g4
I2
sg5
I2
ssVhinrichtungen
p6458
(dp6459
g4
I0
sg5
I1
ssVlinie
p6460
(dp6461
g4
I1
sg5
I0
ssVermittelt
p6462
(dp6463
g4
I0
sg5
I1
ssVlahmt
p6464
(dp6465
g4
I1
sg5
I0
ssVwarmwasser
p6466
(dp6467
g4
I2
sg5
I0
ssVgeschossen
p6468
(dp6469
g4
I1
sg5
I1
ssVbildschirmdiagonale
p6470
(dp6471
g4
I1
sg5
I0
ssVweb
p6472
(dp6473
g4
I5
sg5
I0
ssVgebaut
p6474
(dp6475
g4
I0
sg5
I1
ssVweg
p6476
(dp6477
g4
I1
sg5
I0
ssVkampf
p6478
(dp6479
g4
I3
sg5
I5
ssVgelockerte
p6480
(dp6481
g4
I0
sg5
I1
ssVwei
p6482
(dp6483
g4
I0
sg5
I2
ssVdrive
p6484
(dp6485
g4
I1
sg5
I0
ssVwem
p6486
(dp6487
g4
I1
sg5
I2
ssVgleich
p6488
(dp6489
g4
I2
sg5
I0
ssVwer
p6490
(dp6491
g4
I3
sg5
I4
ssVgmx
p6492
(dp6493
g4
I2
sg5
I0
ssVcitizen
p6494
(dp6495
g4
I1
sg5
I0
ssVsorgt
p6496
(dp6497
g4
I1
sg5
I1
ssVgute
p6498
(dp6499
g4
I3
sg5
I1
ssVdetails
p6500
(dp6501
g4
I1
sg5
I0
ssVwichtigsten
p6502
(dp6503
g4
I3
sg5
I2
ssVmmern
p6504
(dp6505
g4
I0
sg5
I1
ssVbundespr
p6506
(dp6507
g4
I0
sg5
I2
ssVlicher
p6508
(dp6509
g4
I0
sg5
I1
ssVkindern
p6510
(dp6511
g4
I0
sg5
I2
ssVnebensache
p6512
(dp6513
g4
I1
sg5
I0
ssVgerichtsinstanz
p6514
(dp6515
g4
I0
sg5
I1
ssVerpresser
p6516
(dp6517
g4
I1
sg5
I1
ssVsiemens
p6518
(dp6519
g4
I1
sg5
I0
ssVnfc
p6520
(dp6521
g4
I1
sg5
I0
ssVknox
p6522
(dp6523
g4
I1
sg5
I0
ssVeffizienz
p6524
(dp6525
g4
I1
sg5
I0
ssVdraht
p6526
(dp6527
g4
I1
sg5
I0
ssVmotorola
p6528
(dp6529
g4
I1
sg5
I0
ssVemma
p6530
(dp6531
g4
I0
sg5
I1
ssVpreisersparnis
p6532
(dp6533
g4
I1
sg5
I0
ssVprospekt
p6534
(dp6535
g4
I1
sg5
I0
ssVdennoch
p6536
(dp6537
g4
I2
sg5
I1
ssVnachtr
p6538
(dp6539
g4
I0
sg5
I1
ssVautofahren
p6540
(dp6541
g4
I0
sg5
I1
ssVbremst
p6542
(dp6543
g4
I2
sg5
I0
ssVgddr
p6544
(dp6545
g4
I1
sg5
I0
ssVmittelklasse
p6546
(dp6547
g4
I1
sg5
I0
ssVjedoch
p6548
(dp6549
g4
I1
sg5
I1
ssVlager
p6550
(dp6551
g4
I1
sg5
I0
ssVkonomischen
p6552
(dp6553
g4
I0
sg5
I1
ssVwegen
p6554
(dp6555
g4
I0
sg5
I8
ssVgenau
p6556
(dp6557
g4
I2
sg5
I0
ssVwarmen
p6558
(dp6559
g4
I1
sg5
I0
ssVtwitter
p6560
(dp6561
g4
I1
sg5
I0
ssVjubeln
p6562
(dp6563
g4
I0
sg5
I1
ssVanalysiert
p6564
(dp6565
g4
I1
sg5
I0
ssVhandelt
p6566
(dp6567
g4
I1
sg5
I0
ssVbezieht
p6568
(dp6569
g4
I2
sg5
I0
ssVdankbar
p6570
(dp6571
g4
I1
sg5
I0
ssVhome
p6572
(dp6573
g4
I1
sg5
I0
ssVweltmeisterschaft
p6574
(dp6575
g4
I1
sg5
I0
ssVnokia
p6576
(dp6577
g4
I2
sg5
I0
ssVprogrammiersprache
p6578
(dp6579
g4
I1
sg5
I0
ssVfeiner
p6580
(dp6581
g4
I1
sg5
I0
ssVzwei
p6582
(dp6583
g4
I3
sg5
I2
ssVkleinen
p6584
(dp6585
g4
I1
sg5
I0
ssVkleinem
p6586
(dp6587
g4
I1
sg5
I0
ssVstieg
p6588
(dp6589
g4
I1
sg5
I0
ssVkleines
p6590
(dp6591
g4
I1
sg5
I0
ssVzuhause
p6592
(dp6593
g4
I1
sg5
I0
ssVhose
p6594
(dp6595
g4
I1
sg5
I0
ssVevokids
p6596
(dp6597
g4
I0
sg5
I1
ssVzeiten
p6598
(dp6599
g4
I1
sg5
I0
ssVmannschaft
p6600
(dp6601
g4
I0
sg5
I1
ssVoben
p6602
(dp6603
g4
I1
sg5
I0
ssVpatienten
p6604
(dp6605
g4
I0
sg5
I2
ssVkriminalit
p6606
(dp6607
g4
I1
sg5
I0
ssVglichen
p6608
(dp6609
g4
I2
sg5
I1
ssVpilotenausbildung
p6610
(dp6611
g4
I0
sg5
I1
ssVabgespeckten
p6612
(dp6613
g4
I1
sg5
I0
ssVknackt
p6614
(dp6615
g4
I1
sg5
I0
ssVnordkorea
p6616
(dp6617
g4
I0
sg5
I1
ssVsocket
p6618
(dp6619
g4
I1
sg5
I0
ssVdiskriminiert
p6620
(dp6621
g4
I0
sg5
I1
ssVdiktieren
p6622
(dp6623
g4
I1
sg5
I0
ssVverschlepptes
p6624
(dp6625
g4
I0
sg5
I1
ssVnde
p6626
(dp6627
g4
I1
sg5
I0
ssVunion
p6628
(dp6629
g4
I0
sg5
I4
ssVrskandals
p6630
(dp6631
g4
I0
sg5
I1
ssVchsten
p6632
(dp6633
g4
I3
sg5
I2
ssVhier
p6634
(dp6635
g4
I5
sg5
I0
ssVsoftware
p6636
(dp6637
g4
I8
sg5
I1
ssVgegeben
p6638
(dp6639
g4
I2
sg5
I2
ssVeins
p6640
(dp6641
g4
I0
sg5
I1
ssVaufgetaucht
p6642
(dp6643
g4
I0
sg5
I1
ssVgetroffen
p6644
(dp6645
g4
I1
sg5
I0
ssVbericht
p6646
(dp6647
g4
I2
sg5
I2
ssVbrust
p6648
(dp6649
g4
I1
sg5
I0
ssVschwirrt
p6650
(dp6651
g4
I1
sg5
I0
ssVwashington
p6652
(dp6653
g4
I1
sg5
I0
ssVwolle
p6654
(dp6655
g4
I1
sg5
I0
ssVsmarte
p6656
(dp6657
g4
I1
sg5
I0
ssVmerkel
p6658
(dp6659
g4
I0
sg5
I4
ssVeine
p6660
(dp6661
g4
I34
sg5
I21
ssVscharfe
p6662
(dp6663
g4
I1
sg5
I0
ssVnotfalls
p6664
(dp6665
g4
I0
sg5
I1
ssVprivates
p6666
(dp6667
g4
I0
sg5
I1
ssVprivater
p6668
(dp6669
g4
I1
sg5
I0
ssVbezahlt
p6670
(dp6671
g4
I1
sg5
I0
ssVgruppe
p6672
(dp6673
g4
I0
sg5
I1
ssVunbegrenzten
p6674
(dp6675
g4
I0
sg5
I1
ssVapps
p6676
(dp6677
g4
I8
sg5
I0
ssVrenommierte
p6678
(dp6679
g4
I0
sg5
I1
ssVbrandt
p6680
(dp6681
g4
I0
sg5
I3
ssVbesch
p6682
(dp6683
g4
I0
sg5
I2
ssVngjang
p6684
(dp6685
g4
I0
sg5
I1
ssVmailer
p6686
(dp6687
g4
I1
sg5
I0
ssVechtes
p6688
(dp6689
g4
I1
sg5
I0
ssVechter
p6690
(dp6691
g4
I1
sg5
I0
ssVsicherung
p6692
(dp6693
g4
I0
sg5
I1
ssVxinhua
p6694
(dp6695
g4
I1
sg5
I0
ssVmeldet
p6696
(dp6697
g4
I1
sg5
I1
ssVechten
p6698
(dp6699
g4
I1
sg5
I0
ssVmade
p6700
(dp6701
g4
I1
sg5
I0
ssVkarte
p6702
(dp6703
g4
I1
sg5
I0
ssVseit
p6704
(dp6705
g4
I7
sg5
I4
ssVabuja
p6706
(dp6707
g4
I0
sg5
I1
ssVangela
p6708
(dp6709
g4
I0
sg5
I2
ssValltag
p6710
(dp6711
g4
I1
sg5
I0
ssVhrlichste
p6712
(dp6713
g4
I0
sg5
I1
ssVrften
p6714
(dp6715
g4
I2
sg5
I0
ssVzufolge
p6716
(dp6717
g4
I1
sg5
I1
ssVdisplayeinheit
p6718
(dp6719
g4
I1
sg5
I0
ssVausstattung
p6720
(dp6721
g4
I5
sg5
I0
ssVverdacht
p6722
(dp6723
g4
I0
sg5
I2
ssVproblem
p6724
(dp6725
g4
I1
sg5
I1
ssVhause
p6726
(dp6727
g4
I0
sg5
I1
ssVsein
p6728
(dp6729
g4
I9
sg5
I5
ssVdavon
p6730
(dp6731
g4
I1
sg5
I1
ssVrigen
p6732
(dp6733
g4
I1
sg5
I0
ssVstartmen
p6734
(dp6735
g4
I1
sg5
I0
ssVbraucht
p6736
(dp6737
g4
I1
sg5
I0
ssVtresor
p6738
(dp6739
g4
I0
sg5
I1
ssVentmietung
p6740
(dp6741
g4
I1
sg5
I0
ssVlebensmittel
p6742
(dp6743
g4
I0
sg5
I1
ssVins
p6744
(dp6745
g4
I4
sg5
I2
ssVproblemen
p6746
(dp6747
g4
I1
sg5
I0
ssVpiz
p6748
(dp6749
g4
I1
sg5
I0
ssVmeth
p6750
(dp6751
g4
I0
sg5
I1
ssVspeicherplatz
p6752
(dp6753
g4
I1
sg5
I0
ssVgestohlen
p6754
(dp6755
g4
I0
sg5
I1
ssVdrinnen
p6756
(dp6757
g4
I1
sg5
I0
ssVlligste
p6758
(dp6759
g4
I1
sg5
I0
ssVbrandenburg
p6760
(dp6761
g4
I0
sg5
I1
ssVdetail
p6762
(dp6763
g4
I1
sg5
I0
ssVvirtual
p6764
(dp6765
g4
I1
sg5
I0
ssVbook
p6766
(dp6767
g4
I1
sg5
I0
ssVsich
p6768
(dp6769
g4
I35
sg5
I23
ssVhpc
p6770
(dp6771
g4
I1
sg5
I0
ssVzuschreiben
p6772
(dp6773
g4
I1
sg5
I0
ssVschmeckt
p6774
(dp6775
g4
I0
sg5
I2
ssVjuni
p6776
(dp6777
g4
I4
sg5
I0
ssVmultifunktionsger
p6778
(dp6779
g4
I1
sg5
I0
ssVpolizei
p6780
(dp6781
g4
I1
sg5
I0
ssVgruppensieg
p6782
(dp6783
g4
I0
sg5
I2
ssVprozent
p6784
(dp6785
g4
I2
sg5
I1
ssVgas
p6786
(dp6787
g4
I0
sg5
I1
ssVspielt
p6788
(dp6789
g4
I0
sg5
I2
ssVdatenverkehrs
p6790
(dp6791
g4
I1
sg5
I0
ssVdatenbrillen
p6792
(dp6793
g4
I0
sg5
I1
ssVspiele
p6794
(dp6795
g4
I5
sg5
I0
ssVinspiration
p6796
(dp6797
g4
I1
sg5
I0
ssVimpfung
p6798
(dp6799
g4
I0
sg5
I1
ssVhne
p6800
(dp6801
g4
I1
sg5
I0
ssVsamsung
p6802
(dp6803
g4
I5
sg5
I0
ssVniveau
p6804
(dp6805
g4
I1
sg5
I0
ssVfrankfurt
p6806
(dp6807
g4
I2
sg5
I2
ssVinsel
p6808
(dp6809
g4
I1
sg5
I0
ssVeindeutig
p6810
(dp6811
g4
I0
sg5
I1
ssVbagdads
p6812
(dp6813
g4
I0
sg5
I1
ssVallein
p6814
(dp6815
g4
I1
sg5
I1
ssVtrotzdem
p6816
(dp6817
g4
I1
sg5
I2
ssVzugreifen
p6818
(dp6819
g4
I1
sg5
I0
ssVtten
p6820
(dp6821
g4
I1
sg5
I0
ssVjawbone
p6822
(dp6823
g4
I1
sg5
I0
sssS'initprob'
p6824
F0.5
sb.